
bomb:     file format elf32-i386


Disassembly of section .init:

080486f4 <_init>:
 80486f4:	53                   	push   %ebx
 80486f5:	83 ec 08             	sub    $0x8,%esp
 80486f8:	e8 13 02 00 00       	call   8048910 <__x86.get_pc_thunk.bx>
 80486fd:	81 c3 03 39 00 00    	add    $0x3903,%ebx
 8048703:	8b 83 fc ff ff ff    	mov    -0x4(%ebx),%eax
 8048709:	85 c0                	test   %eax,%eax
 804870b:	74 05                	je     8048712 <_init+0x1e>
 804870d:	e8 be 01 00 00       	call   80488d0 <__gmon_start__@plt>
 8048712:	83 c4 08             	add    $0x8,%esp
 8048715:	5b                   	pop    %ebx
 8048716:	c3                   	ret    

Disassembly of section .plt:

08048720 <.plt>:
 8048720:	ff 35 04 c0 04 08    	pushl  0x804c004
 8048726:	ff 25 08 c0 04 08    	jmp    *0x804c008
 804872c:	00 00                	add    %al,(%eax)
	...

08048730 <read@plt>:
 8048730:	ff 25 0c c0 04 08    	jmp    *0x804c00c
 8048736:	68 00 00 00 00       	push   $0x0
 804873b:	e9 e0 ff ff ff       	jmp    8048720 <.plt>

08048740 <fflush@plt>:
 8048740:	ff 25 10 c0 04 08    	jmp    *0x804c010
 8048746:	68 08 00 00 00       	push   $0x8
 804874b:	e9 d0 ff ff ff       	jmp    8048720 <.plt>

08048750 <fgets@plt>:
 8048750:	ff 25 14 c0 04 08    	jmp    *0x804c014
 8048756:	68 10 00 00 00       	push   $0x10
 804875b:	e9 c0 ff ff ff       	jmp    8048720 <.plt>

08048760 <signal@plt>:
 8048760:	ff 25 18 c0 04 08    	jmp    *0x804c018
 8048766:	68 18 00 00 00       	push   $0x18
 804876b:	e9 b0 ff ff ff       	jmp    8048720 <.plt>

08048770 <sleep@plt>:
 8048770:	ff 25 1c c0 04 08    	jmp    *0x804c01c
 8048776:	68 20 00 00 00       	push   $0x20
 804877b:	e9 a0 ff ff ff       	jmp    8048720 <.plt>

08048780 <alarm@plt>:
 8048780:	ff 25 20 c0 04 08    	jmp    *0x804c020
 8048786:	68 28 00 00 00       	push   $0x28
 804878b:	e9 90 ff ff ff       	jmp    8048720 <.plt>

08048790 <__stack_chk_fail@plt>:
 8048790:	ff 25 24 c0 04 08    	jmp    *0x804c024
 8048796:	68 30 00 00 00       	push   $0x30
 804879b:	e9 80 ff ff ff       	jmp    8048720 <.plt>

080487a0 <strcpy@plt>:
 80487a0:	ff 25 28 c0 04 08    	jmp    *0x804c028
 80487a6:	68 38 00 00 00       	push   $0x38
 80487ab:	e9 70 ff ff ff       	jmp    8048720 <.plt>

080487b0 <getenv@plt>:
 80487b0:	ff 25 2c c0 04 08    	jmp    *0x804c02c
 80487b6:	68 40 00 00 00       	push   $0x40
 80487bb:	e9 60 ff ff ff       	jmp    8048720 <.plt>

080487c0 <puts@plt>:
 80487c0:	ff 25 30 c0 04 08    	jmp    *0x804c030
 80487c6:	68 48 00 00 00       	push   $0x48
 80487cb:	e9 50 ff ff ff       	jmp    8048720 <.plt>

080487d0 <__memmove_chk@plt>:
 80487d0:	ff 25 34 c0 04 08    	jmp    *0x804c034
 80487d6:	68 50 00 00 00       	push   $0x50
 80487db:	e9 40 ff ff ff       	jmp    8048720 <.plt>

080487e0 <exit@plt>:
 80487e0:	ff 25 38 c0 04 08    	jmp    *0x804c038
 80487e6:	68 58 00 00 00       	push   $0x58
 80487eb:	e9 30 ff ff ff       	jmp    8048720 <.plt>

080487f0 <__libc_start_main@plt>:
 80487f0:	ff 25 3c c0 04 08    	jmp    *0x804c03c
 80487f6:	68 60 00 00 00       	push   $0x60
 80487fb:	e9 20 ff ff ff       	jmp    8048720 <.plt>

08048800 <write@plt>:
 8048800:	ff 25 40 c0 04 08    	jmp    *0x804c040
 8048806:	68 68 00 00 00       	push   $0x68
 804880b:	e9 10 ff ff ff       	jmp    8048720 <.plt>

08048810 <__isoc99_sscanf@plt>:
 8048810:	ff 25 44 c0 04 08    	jmp    *0x804c044
 8048816:	68 70 00 00 00       	push   $0x70
 804881b:	e9 00 ff ff ff       	jmp    8048720 <.plt>

08048820 <fopen@plt>:
 8048820:	ff 25 48 c0 04 08    	jmp    *0x804c048
 8048826:	68 78 00 00 00       	push   $0x78
 804882b:	e9 f0 fe ff ff       	jmp    8048720 <.plt>

08048830 <__errno_location@plt>:
 8048830:	ff 25 4c c0 04 08    	jmp    *0x804c04c
 8048836:	68 80 00 00 00       	push   $0x80
 804883b:	e9 e0 fe ff ff       	jmp    8048720 <.plt>

08048840 <__printf_chk@plt>:
 8048840:	ff 25 50 c0 04 08    	jmp    *0x804c050
 8048846:	68 88 00 00 00       	push   $0x88
 804884b:	e9 d0 fe ff ff       	jmp    8048720 <.plt>

08048850 <socket@plt>:
 8048850:	ff 25 54 c0 04 08    	jmp    *0x804c054
 8048856:	68 90 00 00 00       	push   $0x90
 804885b:	e9 c0 fe ff ff       	jmp    8048720 <.plt>

08048860 <__fprintf_chk@plt>:
 8048860:	ff 25 58 c0 04 08    	jmp    *0x804c058
 8048866:	68 98 00 00 00       	push   $0x98
 804886b:	e9 b0 fe ff ff       	jmp    8048720 <.plt>

08048870 <gethostbyname@plt>:
 8048870:	ff 25 5c c0 04 08    	jmp    *0x804c05c
 8048876:	68 a0 00 00 00       	push   $0xa0
 804887b:	e9 a0 fe ff ff       	jmp    8048720 <.plt>

08048880 <strtol@plt>:
 8048880:	ff 25 60 c0 04 08    	jmp    *0x804c060
 8048886:	68 a8 00 00 00       	push   $0xa8
 804888b:	e9 90 fe ff ff       	jmp    8048720 <.plt>

08048890 <connect@plt>:
 8048890:	ff 25 64 c0 04 08    	jmp    *0x804c064
 8048896:	68 b0 00 00 00       	push   $0xb0
 804889b:	e9 80 fe ff ff       	jmp    8048720 <.plt>

080488a0 <close@plt>:
 80488a0:	ff 25 68 c0 04 08    	jmp    *0x804c068
 80488a6:	68 b8 00 00 00       	push   $0xb8
 80488ab:	e9 70 fe ff ff       	jmp    8048720 <.plt>

080488b0 <__ctype_b_loc@plt>:
 80488b0:	ff 25 6c c0 04 08    	jmp    *0x804c06c
 80488b6:	68 c0 00 00 00       	push   $0xc0
 80488bb:	e9 60 fe ff ff       	jmp    8048720 <.plt>

080488c0 <__sprintf_chk@plt>:
 80488c0:	ff 25 70 c0 04 08    	jmp    *0x804c070
 80488c6:	68 c8 00 00 00       	push   $0xc8
 80488cb:	e9 50 fe ff ff       	jmp    8048720 <.plt>

Disassembly of section .plt.got:

080488d0 <__gmon_start__@plt>:
 80488d0:	ff 25 fc bf 04 08    	jmp    *0x804bffc
 80488d6:	66 90                	xchg   %ax,%ax

Disassembly of section .text:

080488e0 <_start>:
 80488e0:	31 ed                	xor    %ebp,%ebp
 80488e2:	5e                   	pop    %esi
 80488e3:	89 e1                	mov    %esp,%ecx
 80488e5:	83 e4 f0             	and    $0xfffffff0,%esp
 80488e8:	50                   	push   %eax
 80488e9:	54                   	push   %esp
 80488ea:	52                   	push   %edx
 80488eb:	68 c0 9e 04 08       	push   $0x8049ec0
 80488f0:	68 60 9e 04 08       	push   $0x8049e60
 80488f5:	51                   	push   %ecx
 80488f6:	56                   	push   %esi
 80488f7:	68 db 89 04 08       	push   $0x80489db
 80488fc:	e8 ef fe ff ff       	call   80487f0 <__libc_start_main@plt>
 8048901:	f4                   	hlt    
 8048902:	66 90                	xchg   %ax,%ax
 8048904:	66 90                	xchg   %ax,%ax
 8048906:	66 90                	xchg   %ax,%ax
 8048908:	66 90                	xchg   %ax,%ax
 804890a:	66 90                	xchg   %ax,%ax
 804890c:	66 90                	xchg   %ax,%ax
 804890e:	66 90                	xchg   %ax,%ax

08048910 <__x86.get_pc_thunk.bx>:
 8048910:	8b 1c 24             	mov    (%esp),%ebx
 8048913:	c3                   	ret    
 8048914:	66 90                	xchg   %ax,%ax
 8048916:	66 90                	xchg   %ax,%ax
 8048918:	66 90                	xchg   %ax,%ax
 804891a:	66 90                	xchg   %ax,%ax
 804891c:	66 90                	xchg   %ax,%ax
 804891e:	66 90                	xchg   %ax,%ax

08048920 <deregister_tm_clones>:
 8048920:	b8 a3 c3 04 08       	mov    $0x804c3a3,%eax
 8048925:	2d a0 c3 04 08       	sub    $0x804c3a0,%eax
 804892a:	83 f8 06             	cmp    $0x6,%eax
 804892d:	76 1a                	jbe    8048949 <deregister_tm_clones+0x29>
 804892f:	b8 00 00 00 00       	mov    $0x0,%eax
 8048934:	85 c0                	test   %eax,%eax
 8048936:	74 11                	je     8048949 <deregister_tm_clones+0x29>
 8048938:	55                   	push   %ebp
 8048939:	89 e5                	mov    %esp,%ebp
 804893b:	83 ec 14             	sub    $0x14,%esp
 804893e:	68 a0 c3 04 08       	push   $0x804c3a0
 8048943:	ff d0                	call   *%eax
 8048945:	83 c4 10             	add    $0x10,%esp
 8048948:	c9                   	leave  
 8048949:	f3 c3                	repz ret 
 804894b:	90                   	nop
 804894c:	8d 74 26 00          	lea    0x0(%esi,%eiz,1),%esi

08048950 <register_tm_clones>:
 8048950:	b8 a0 c3 04 08       	mov    $0x804c3a0,%eax
 8048955:	2d a0 c3 04 08       	sub    $0x804c3a0,%eax
 804895a:	c1 f8 02             	sar    $0x2,%eax
 804895d:	89 c2                	mov    %eax,%edx
 804895f:	c1 ea 1f             	shr    $0x1f,%edx
 8048962:	01 d0                	add    %edx,%eax
 8048964:	d1 f8                	sar    %eax
 8048966:	74 1b                	je     8048983 <register_tm_clones+0x33>
 8048968:	ba 00 00 00 00       	mov    $0x0,%edx
 804896d:	85 d2                	test   %edx,%edx
 804896f:	74 12                	je     8048983 <register_tm_clones+0x33>
 8048971:	55                   	push   %ebp
 8048972:	89 e5                	mov    %esp,%ebp
 8048974:	83 ec 10             	sub    $0x10,%esp
 8048977:	50                   	push   %eax
 8048978:	68 a0 c3 04 08       	push   $0x804c3a0
 804897d:	ff d2                	call   *%edx
 804897f:	83 c4 10             	add    $0x10,%esp
 8048982:	c9                   	leave  
 8048983:	f3 c3                	repz ret 
 8048985:	8d 74 26 00          	lea    0x0(%esi,%eiz,1),%esi
 8048989:	8d bc 27 00 00 00 00 	lea    0x0(%edi,%eiz,1),%edi

08048990 <__do_global_dtors_aux>:
 8048990:	80 3d c8 c3 04 08 00 	cmpb   $0x0,0x804c3c8
 8048997:	75 13                	jne    80489ac <__do_global_dtors_aux+0x1c>
 8048999:	55                   	push   %ebp
 804899a:	89 e5                	mov    %esp,%ebp
 804899c:	83 ec 08             	sub    $0x8,%esp
 804899f:	e8 7c ff ff ff       	call   8048920 <deregister_tm_clones>
 80489a4:	c6 05 c8 c3 04 08 01 	movb   $0x1,0x804c3c8
 80489ab:	c9                   	leave  
 80489ac:	f3 c3                	repz ret 
 80489ae:	66 90                	xchg   %ax,%ax

080489b0 <frame_dummy>:
 80489b0:	b8 10 bf 04 08       	mov    $0x804bf10,%eax
 80489b5:	8b 10                	mov    (%eax),%edx
 80489b7:	85 d2                	test   %edx,%edx
 80489b9:	75 05                	jne    80489c0 <frame_dummy+0x10>
 80489bb:	eb 93                	jmp    8048950 <register_tm_clones>
 80489bd:	8d 76 00             	lea    0x0(%esi),%esi
 80489c0:	ba 00 00 00 00       	mov    $0x0,%edx
 80489c5:	85 d2                	test   %edx,%edx
 80489c7:	74 f2                	je     80489bb <frame_dummy+0xb>
 80489c9:	55                   	push   %ebp
 80489ca:	89 e5                	mov    %esp,%ebp
 80489cc:	83 ec 14             	sub    $0x14,%esp
 80489cf:	50                   	push   %eax
 80489d0:	ff d2                	call   *%edx
 80489d2:	83 c4 10             	add    $0x10,%esp
 80489d5:	c9                   	leave  
 80489d6:	e9 75 ff ff ff       	jmp    8048950 <register_tm_clones>

080489db <main>:
 80489db:	8d 4c 24 04          	lea    0x4(%esp),%ecx
 80489df:	83 e4 f0             	and    $0xfffffff0,%esp
 80489e2:	ff 71 fc             	pushl  -0x4(%ecx)
 80489e5:	55                   	push   %ebp
 80489e6:	89 e5                	mov    %esp,%ebp
 80489e8:	53                   	push   %ebx
 80489e9:	51                   	push   %ecx
 80489ea:	8b 01                	mov    (%ecx),%eax
 80489ec:	8b 59 04             	mov    0x4(%ecx),%ebx
 80489ef:	83 f8 01             	cmp    $0x1,%eax
 80489f2:	75 0c                	jne    8048a00 <main+0x25>
 80489f4:	a1 c0 c3 04 08       	mov    0x804c3c0,%eax
 80489f9:	a3 d0 c3 04 08       	mov    %eax,0x804c3d0
 80489fe:	eb 5b                	jmp    8048a5b <main+0x80>
 8048a00:	83 f8 02             	cmp    $0x2,%eax
 8048a03:	75 39                	jne    8048a3e <main+0x63>
 8048a05:	83 ec 08             	sub    $0x8,%esp
 8048a08:	68 e0 9e 04 08       	push   $0x8049ee0
 8048a0d:	ff 73 04             	pushl  0x4(%ebx)
 8048a10:	e8 0b fe ff ff       	call   8048820 <fopen@plt>
 8048a15:	a3 d0 c3 04 08       	mov    %eax,0x804c3d0
 8048a1a:	83 c4 10             	add    $0x10,%esp
 8048a1d:	85 c0                	test   %eax,%eax
 8048a1f:	75 3a                	jne    8048a5b <main+0x80>
 8048a21:	ff 73 04             	pushl  0x4(%ebx)
 8048a24:	ff 33                	pushl  (%ebx)
 8048a26:	68 e2 9e 04 08       	push   $0x8049ee2
 8048a2b:	6a 01                	push   $0x1
 8048a2d:	e8 0e fe ff ff       	call   8048840 <__printf_chk@plt>
 8048a32:	c7 04 24 08 00 00 00 	movl   $0x8,(%esp)
 8048a39:	e8 a2 fd ff ff       	call   80487e0 <exit@plt>
 8048a3e:	83 ec 04             	sub    $0x4,%esp
 8048a41:	ff 33                	pushl  (%ebx)
 8048a43:	68 ff 9e 04 08       	push   $0x8049eff
 8048a48:	6a 01                	push   $0x1
 8048a4a:	e8 f1 fd ff ff       	call   8048840 <__printf_chk@plt>
 8048a4f:	c7 04 24 08 00 00 00 	movl   $0x8,(%esp)
 8048a56:	e8 85 fd ff ff       	call   80487e0 <exit@plt>
 8048a5b:	e8 c8 05 00 00       	call   8049028 <initialize_bomb>
 8048a60:	83 ec 0c             	sub    $0xc,%esp
 8048a63:	68 64 9f 04 08       	push   $0x8049f64
 8048a68:	e8 53 fd ff ff       	call   80487c0 <puts@plt>
 8048a6d:	c7 04 24 a0 9f 04 08 	movl   $0x8049fa0,(%esp)
 8048a74:	e8 47 fd ff ff       	call   80487c0 <puts@plt>
 8048a79:	e8 a5 06 00 00       	call   8049123 <read_line>
 8048a7e:	89 04 24             	mov    %eax,(%esp)
 8048a81:	e8 aa 00 00 00       	call   8048b30 <phase_1>
 8048a86:	e8 9b 07 00 00       	call   8049226 <phase_defused>
 8048a8b:	c7 04 24 cc 9f 04 08 	movl   $0x8049fcc,(%esp)
 8048a92:	e8 29 fd ff ff       	call   80487c0 <puts@plt>
 8048a97:	e8 87 06 00 00       	call   8049123 <read_line>
 8048a9c:	89 04 24             	mov    %eax,(%esp)
 8048a9f:	e8 ad 00 00 00       	call   8048b51 <phase_2>
 8048aa4:	e8 7d 07 00 00       	call   8049226 <phase_defused>
 8048aa9:	c7 04 24 19 9f 04 08 	movl   $0x8049f19,(%esp)
 8048ab0:	e8 0b fd ff ff       	call   80487c0 <puts@plt>
 8048ab5:	e8 69 06 00 00       	call   8049123 <read_line>
 8048aba:	89 04 24             	mov    %eax,(%esp)
 8048abd:	e8 ef 00 00 00       	call   8048bb1 <phase_3>
 8048ac2:	e8 5f 07 00 00       	call   8049226 <phase_defused>
 8048ac7:	c7 04 24 37 9f 04 08 	movl   $0x8049f37,(%esp)
 8048ace:	e8 ed fc ff ff       	call   80487c0 <puts@plt>
 8048ad3:	e8 4b 06 00 00       	call   8049123 <read_line>
 8048ad8:	89 04 24             	mov    %eax,(%esp)
 8048adb:	e8 be 01 00 00       	call   8048c9e <phase_4>
 8048ae0:	e8 41 07 00 00       	call   8049226 <phase_defused>
 8048ae5:	c7 04 24 f8 9f 04 08 	movl   $0x8049ff8,(%esp)
 8048aec:	e8 cf fc ff ff       	call   80487c0 <puts@plt>
 8048af1:	e8 2d 06 00 00       	call   8049123 <read_line>
 8048af6:	89 04 24             	mov    %eax,(%esp)
 8048af9:	e8 0b 02 00 00       	call   8048d09 <phase_5>
 8048afe:	e8 23 07 00 00       	call   8049226 <phase_defused>
 8048b03:	c7 04 24 46 9f 04 08 	movl   $0x8049f46,(%esp)
 8048b0a:	e8 b1 fc ff ff       	call   80487c0 <puts@plt>
 8048b0f:	e8 0f 06 00 00       	call   8049123 <read_line>
 8048b14:	89 04 24             	mov    %eax,(%esp)
 8048b17:	e8 6b 02 00 00       	call   8048d87 <phase_6>
 8048b1c:	e8 05 07 00 00       	call   8049226 <phase_defused>
 8048b21:	b8 00 00 00 00       	mov    $0x0,%eax
 8048b26:	8d 65 f8             	lea    -0x8(%ebp),%esp
 8048b29:	59                   	pop    %ecx
 8048b2a:	5b                   	pop    %ebx
 8048b2b:	5d                   	pop    %ebp
 8048b2c:	8d 61 fc             	lea    -0x4(%ecx),%esp
 8048b2f:	c3                   	ret    

08048b30 <phase_1>:
 8048b30:	55                   	push   %ebp
 8048b31:	89 e5                	mov    %esp,%ebp
 8048b33:	83 ec 10             	sub    $0x10,%esp
 8048b36:	68 1c a0 04 08       	push   $0x804a01c
 8048b3b:	ff 75 08             	pushl  0x8(%ebp)
 8048b3e:	e8 7b 04 00 00       	call   8048fbe <strings_not_equal>
 8048b43:	83 c4 10             	add    $0x10,%esp
 8048b46:	85 c0                	test   %eax,%eax
 8048b48:	74 05                	je     8048b4f <phase_1+0x1f>
 8048b4a:	e8 72 05 00 00       	call   80490c1 <explode_bomb>
 8048b4f:	c9                   	leave  
 8048b50:	c3                   	ret    

08048b51 <phase_2>:
 8048b51:	55                   	push   %ebp
 8048b52:	89 e5                	mov    %esp,%ebp
 8048b54:	53                   	push   %ebx
 8048b55:	83 ec 2c             	sub    $0x2c,%esp
 8048b58:	65 a1 14 00 00 00    	mov    %gs:0x14,%eax
 8048b5e:	89 45 f4             	mov    %eax,-0xc(%ebp)
 8048b61:	31 c0                	xor    %eax,%eax
 8048b63:	8d 45 dc             	lea    -0x24(%ebp),%eax
 8048b66:	50                   	push   %eax
 8048b67:	ff 75 08             	pushl  0x8(%ebp)
 8048b6a:	e8 7a 05 00 00       	call   80490e9 <read_six_numbers>
 8048b6f:	83 c4 10             	add    $0x10,%esp
 8048b72:	83 7d dc 00          	cmpl   $0x0,-0x24(%ebp)
 8048b76:	79 05                	jns    8048b7d <phase_2+0x2c>
 8048b78:	e8 44 05 00 00       	call   80490c1 <explode_bomb>
 8048b7d:	bb 01 00 00 00       	mov    $0x1,%ebx
 8048b82:	89 d8                	mov    %ebx,%eax
 8048b84:	03 44 9d d8          	add    -0x28(%ebp,%ebx,4),%eax
 8048b88:	39 44 9d dc          	cmp    %eax,-0x24(%ebp,%ebx,4)
 8048b8c:	74 05                	je     8048b93 <phase_2+0x42>
 8048b8e:	e8 2e 05 00 00       	call   80490c1 <explode_bomb>
 8048b93:	83 c3 01             	add    $0x1,%ebx
 8048b96:	83 fb 06             	cmp    $0x6,%ebx
 8048b99:	75 e7                	jne    8048b82 <phase_2+0x31>
 8048b9b:	8b 45 f4             	mov    -0xc(%ebp),%eax
 8048b9e:	65 33 05 14 00 00 00 	xor    %gs:0x14,%eax
 8048ba5:	74 05                	je     8048bac <phase_2+0x5b>
 8048ba7:	e8 e4 fb ff ff       	call   8048790 <__stack_chk_fail@plt>
 8048bac:	8b 5d fc             	mov    -0x4(%ebp),%ebx
 8048baf:	c9                   	leave  
 8048bb0:	c3                   	ret    

08048bb1 <phase_3>:
 8048bb1:	55                   	push   %ebp
 8048bb2:	89 e5                	mov    %esp,%ebp
 8048bb4:	83 ec 18             	sub    $0x18,%esp
 8048bb7:	65 a1 14 00 00 00    	mov    %gs:0x14,%eax
 8048bbd:	89 45 f4             	mov    %eax,-0xc(%ebp)
 8048bc0:	31 c0                	xor    %eax,%eax
 8048bc2:	8d 45 f0             	lea    -0x10(%ebp),%eax
 8048bc5:	50                   	push   %eax
 8048bc6:	8d 45 ec             	lea    -0x14(%ebp),%eax
 8048bc9:	50                   	push   %eax
 8048bca:	68 bf a1 04 08       	push   $0x804a1bf
 8048bcf:	ff 75 08             	pushl  0x8(%ebp)
 8048bd2:	e8 39 fc ff ff       	call   8048810 <__isoc99_sscanf@plt>
 8048bd7:	83 c4 10             	add    $0x10,%esp
 8048bda:	83 f8 01             	cmp    $0x1,%eax
 8048bdd:	7f 05                	jg     8048be4 <phase_3+0x33>
 8048bdf:	e8 dd 04 00 00       	call   80490c1 <explode_bomb>
 8048be4:	83 7d ec 07          	cmpl   $0x7,-0x14(%ebp)
 8048be8:	77 3b                	ja     8048c25 <phase_3+0x74>
 8048bea:	8b 45 ec             	mov    -0x14(%ebp),%eax
 8048bed:	ff 24 85 80 a0 04 08 	jmp    *0x804a080(,%eax,4)
 8048bf4:	b8 08 03 00 00       	mov    $0x308,%eax
 8048bf9:	eb 3b                	jmp    8048c36 <phase_3+0x85>
 8048bfb:	b8 a9 01 00 00       	mov    $0x1a9,%eax
 8048c00:	eb 34                	jmp    8048c36 <phase_3+0x85>
 8048c02:	b8 a4 02 00 00       	mov    $0x2a4,%eax
 8048c07:	eb 2d                	jmp    8048c36 <phase_3+0x85>
 8048c09:	b8 8d 03 00 00       	mov    $0x38d,%eax
 8048c0e:	eb 26                	jmp    8048c36 <phase_3+0x85>
 8048c10:	b8 c2 02 00 00       	mov    $0x2c2,%eax
 8048c15:	eb 1f                	jmp    8048c36 <phase_3+0x85>
 8048c17:	b8 10 03 00 00       	mov    $0x310,%eax
 8048c1c:	eb 18                	jmp    8048c36 <phase_3+0x85>
 8048c1e:	b8 d1 00 00 00       	mov    $0xd1,%eax
 8048c23:	eb 11                	jmp    8048c36 <phase_3+0x85>
 8048c25:	e8 97 04 00 00       	call   80490c1 <explode_bomb>
 8048c2a:	b8 00 00 00 00       	mov    $0x0,%eax
 8048c2f:	eb 05                	jmp    8048c36 <phase_3+0x85>
 8048c31:	b8 89 00 00 00       	mov    $0x89,%eax
 8048c36:	3b 45 f0             	cmp    -0x10(%ebp),%eax
 8048c39:	74 05                	je     8048c40 <phase_3+0x8f>
 8048c3b:	e8 81 04 00 00       	call   80490c1 <explode_bomb>
 8048c40:	8b 45 f4             	mov    -0xc(%ebp),%eax
 8048c43:	65 33 05 14 00 00 00 	xor    %gs:0x14,%eax
 8048c4a:	74 05                	je     8048c51 <phase_3+0xa0>
 8048c4c:	e8 3f fb ff ff       	call   8048790 <__stack_chk_fail@plt>
 8048c51:	c9                   	leave  
 8048c52:	c3                   	ret    

08048c53 <func4>:
 8048c53:	55                   	push   %ebp
 8048c54:	89 e5                	mov    %esp,%ebp
 8048c56:	57                   	push   %edi
 8048c57:	56                   	push   %esi
 8048c58:	53                   	push   %ebx
 8048c59:	83 ec 0c             	sub    $0xc,%esp
 8048c5c:	8b 5d 08             	mov    0x8(%ebp),%ebx
 8048c5f:	8b 7d 0c             	mov    0xc(%ebp),%edi
 8048c62:	85 db                	test   %ebx,%ebx
 8048c64:	7e 2b                	jle    8048c91 <func4+0x3e>
 8048c66:	89 f8                	mov    %edi,%eax
 8048c68:	83 fb 01             	cmp    $0x1,%ebx
 8048c6b:	74 29                	je     8048c96 <func4+0x43>
 8048c6d:	83 ec 08             	sub    $0x8,%esp
 8048c70:	57                   	push   %edi
 8048c71:	8d 43 ff             	lea    -0x1(%ebx),%eax
 8048c74:	50                   	push   %eax
 8048c75:	e8 d9 ff ff ff       	call   8048c53 <func4>
 8048c7a:	83 c4 08             	add    $0x8,%esp
 8048c7d:	8d 34 07             	lea    (%edi,%eax,1),%esi
 8048c80:	57                   	push   %edi
 8048c81:	83 eb 02             	sub    $0x2,%ebx
 8048c84:	53                   	push   %ebx
 8048c85:	e8 c9 ff ff ff       	call   8048c53 <func4>
 8048c8a:	83 c4 10             	add    $0x10,%esp
 8048c8d:	01 f0                	add    %esi,%eax
 8048c8f:	eb 05                	jmp    8048c96 <func4+0x43>
 8048c91:	b8 00 00 00 00       	mov    $0x0,%eax
 8048c96:	8d 65 f4             	lea    -0xc(%ebp),%esp
 8048c99:	5b                   	pop    %ebx
 8048c9a:	5e                   	pop    %esi
 8048c9b:	5f                   	pop    %edi
 8048c9c:	5d                   	pop    %ebp
 8048c9d:	c3                   	ret    

08048c9e <phase_4>:
 8048c9e:	55                   	push   %ebp
 8048c9f:	89 e5                	mov    %esp,%ebp
 8048ca1:	83 ec 18             	sub    $0x18,%esp
 8048ca4:	65 a1 14 00 00 00    	mov    %gs:0x14,%eax
 8048caa:	89 45 f4             	mov    %eax,-0xc(%ebp)
 8048cad:	31 c0                	xor    %eax,%eax
 8048caf:	8d 45 ec             	lea    -0x14(%ebp),%eax
 8048cb2:	50                   	push   %eax
 8048cb3:	8d 45 f0             	lea    -0x10(%ebp),%eax
 8048cb6:	50                   	push   %eax
 8048cb7:	68 bf a1 04 08       	push   $0x804a1bf
 8048cbc:	ff 75 08             	pushl  0x8(%ebp)
 8048cbf:	e8 4c fb ff ff       	call   8048810 <__isoc99_sscanf@plt>
 8048cc4:	83 c4 10             	add    $0x10,%esp
 8048cc7:	83 f8 02             	cmp    $0x2,%eax
 8048cca:	75 0b                	jne    8048cd7 <phase_4+0x39>
 8048ccc:	8b 45 ec             	mov    -0x14(%ebp),%eax
 8048ccf:	83 e8 02             	sub    $0x2,%eax
 8048cd2:	83 f8 02             	cmp    $0x2,%eax
 8048cd5:	76 05                	jbe    8048cdc <phase_4+0x3e>
 8048cd7:	e8 e5 03 00 00       	call   80490c1 <explode_bomb>
 8048cdc:	83 ec 08             	sub    $0x8,%esp
 8048cdf:	ff 75 ec             	pushl  -0x14(%ebp)
 8048ce2:	6a 06                	push   $0x6
 8048ce4:	e8 6a ff ff ff       	call   8048c53 <func4>
 8048ce9:	83 c4 10             	add    $0x10,%esp
 8048cec:	3b 45 f0             	cmp    -0x10(%ebp),%eax
 8048cef:	74 05                	je     8048cf6 <phase_4+0x58>
 8048cf1:	e8 cb 03 00 00       	call   80490c1 <explode_bomb>
 8048cf6:	8b 45 f4             	mov    -0xc(%ebp),%eax
 8048cf9:	65 33 05 14 00 00 00 	xor    %gs:0x14,%eax
 8048d00:	74 05                	je     8048d07 <phase_4+0x69>
 8048d02:	e8 89 fa ff ff       	call   8048790 <__stack_chk_fail@plt>
 8048d07:	c9                   	leave  
 8048d08:	c3                   	ret    

08048d09 <phase_5>:
 8048d09:	55                   	push   %ebp
 8048d0a:	89 e5                	mov    %esp,%ebp
 8048d0c:	53                   	push   %ebx
 8048d0d:	83 ec 20             	sub    $0x20,%esp
 8048d10:	8b 5d 08             	mov    0x8(%ebp),%ebx
 8048d13:	65 a1 14 00 00 00    	mov    %gs:0x14,%eax
 8048d19:	89 45 f4             	mov    %eax,-0xc(%ebp)
 8048d1c:	31 c0                	xor    %eax,%eax
 8048d1e:	53                   	push   %ebx
 8048d1f:	e8 78 02 00 00       	call   8048f9c <string_length>
 8048d24:	83 c4 10             	add    $0x10,%esp
 8048d27:	83 f8 06             	cmp    $0x6,%eax
 8048d2a:	74 05                	je     8048d31 <phase_5+0x28>
 8048d2c:	e8 90 03 00 00       	call   80490c1 <explode_bomb>
 8048d31:	b8 00 00 00 00       	mov    $0x0,%eax
 8048d36:	0f b6 14 03          	movzbl (%ebx,%eax,1),%edx
 8048d3a:	83 e2 0f             	and    $0xf,%edx
 8048d3d:	0f b6 92 a0 a0 04 08 	movzbl 0x804a0a0(%edx),%edx
 8048d44:	88 54 05 ed          	mov    %dl,-0x13(%ebp,%eax,1)
 8048d48:	83 c0 01             	add    $0x1,%eax
 8048d4b:	83 f8 06             	cmp    $0x6,%eax
 8048d4e:	75 e6                	jne    8048d36 <phase_5+0x2d>
 8048d50:	c6 45 f3 00          	movb   $0x0,-0xd(%ebp)
 8048d54:	83 ec 08             	sub    $0x8,%esp
 8048d57:	68 76 a0 04 08       	push   $0x804a076
 8048d5c:	8d 45 ed             	lea    -0x13(%ebp),%eax
 8048d5f:	50                   	push   %eax
 8048d60:	e8 59 02 00 00       	call   8048fbe <strings_not_equal>
 8048d65:	83 c4 10             	add    $0x10,%esp
 8048d68:	85 c0                	test   %eax,%eax
 8048d6a:	74 05                	je     8048d71 <phase_5+0x68>
 8048d6c:	e8 50 03 00 00       	call   80490c1 <explode_bomb>
 8048d71:	8b 45 f4             	mov    -0xc(%ebp),%eax
 8048d74:	65 33 05 14 00 00 00 	xor    %gs:0x14,%eax
 8048d7b:	74 05                	je     8048d82 <phase_5+0x79>
 8048d7d:	e8 0e fa ff ff       	call   8048790 <__stack_chk_fail@plt>
 8048d82:	8b 5d fc             	mov    -0x4(%ebp),%ebx
 8048d85:	c9                   	leave  
 8048d86:	c3                   	ret    

08048d87 <phase_6>:
 8048d87:	55                   	push   %ebp
 8048d88:	89 e5                	mov    %esp,%ebp
 8048d8a:	56                   	push   %esi
 8048d8b:	53                   	push   %ebx
 8048d8c:	83 ec 48             	sub    $0x48,%esp
 8048d8f:	65 a1 14 00 00 00    	mov    %gs:0x14,%eax
 8048d95:	89 45 f4             	mov    %eax,-0xc(%ebp)
 8048d98:	31 c0                	xor    %eax,%eax
 8048d9a:	8d 45 c4             	lea    -0x3c(%ebp),%eax
 8048d9d:	50                   	push   %eax
 8048d9e:	ff 75 08             	pushl  0x8(%ebp)
 8048da1:	e8 43 03 00 00       	call   80490e9 <read_six_numbers>
 8048da6:	83 c4 10             	add    $0x10,%esp
 8048da9:	be 00 00 00 00       	mov    $0x0,%esi
 8048dae:	8b 44 b5 c4          	mov    -0x3c(%ebp,%esi,4),%eax
 8048db2:	83 e8 01             	sub    $0x1,%eax
 8048db5:	83 f8 05             	cmp    $0x5,%eax
 8048db8:	76 05                	jbe    8048dbf <phase_6+0x38>
 8048dba:	e8 02 03 00 00       	call   80490c1 <explode_bomb>
 8048dbf:	83 c6 01             	add    $0x1,%esi
 8048dc2:	83 fe 06             	cmp    $0x6,%esi
 8048dc5:	74 33                	je     8048dfa <phase_6+0x73>
 8048dc7:	89 f3                	mov    %esi,%ebx
 8048dc9:	8b 44 9d c4          	mov    -0x3c(%ebp,%ebx,4),%eax
 8048dcd:	39 44 b5 c0          	cmp    %eax,-0x40(%ebp,%esi,4)
 8048dd1:	75 05                	jne    8048dd8 <phase_6+0x51>
 8048dd3:	e8 e9 02 00 00       	call   80490c1 <explode_bomb>
 8048dd8:	83 c3 01             	add    $0x1,%ebx
 8048ddb:	83 fb 05             	cmp    $0x5,%ebx
 8048dde:	7e e9                	jle    8048dc9 <phase_6+0x42>
 8048de0:	eb cc                	jmp    8048dae <phase_6+0x27>
 8048de2:	8b 52 08             	mov    0x8(%edx),%edx
 8048de5:	83 c0 01             	add    $0x1,%eax
 8048de8:	39 c8                	cmp    %ecx,%eax
 8048dea:	75 f6                	jne    8048de2 <phase_6+0x5b>
 8048dec:	89 54 b5 dc          	mov    %edx,-0x24(%ebp,%esi,4)
 8048df0:	83 c3 01             	add    $0x1,%ebx
 8048df3:	83 fb 06             	cmp    $0x6,%ebx
 8048df6:	75 07                	jne    8048dff <phase_6+0x78>
 8048df8:	eb 1c                	jmp    8048e16 <phase_6+0x8f>
 8048dfa:	bb 00 00 00 00       	mov    $0x0,%ebx
 8048dff:	89 de                	mov    %ebx,%esi
 8048e01:	8b 4c 9d c4          	mov    -0x3c(%ebp,%ebx,4),%ecx
 8048e05:	b8 01 00 00 00       	mov    $0x1,%eax
 8048e0a:	ba 3c c1 04 08       	mov    $0x804c13c,%edx
 8048e0f:	83 f9 01             	cmp    $0x1,%ecx
 8048e12:	7f ce                	jg     8048de2 <phase_6+0x5b>
 8048e14:	eb d6                	jmp    8048dec <phase_6+0x65>
 8048e16:	8b 5d dc             	mov    -0x24(%ebp),%ebx
 8048e19:	8d 45 dc             	lea    -0x24(%ebp),%eax
 8048e1c:	8d 75 f0             	lea    -0x10(%ebp),%esi
 8048e1f:	89 d9                	mov    %ebx,%ecx
 8048e21:	8b 50 04             	mov    0x4(%eax),%edx
 8048e24:	89 51 08             	mov    %edx,0x8(%ecx)
 8048e27:	83 c0 04             	add    $0x4,%eax
 8048e2a:	89 d1                	mov    %edx,%ecx
 8048e2c:	39 f0                	cmp    %esi,%eax
 8048e2e:	75 f1                	jne    8048e21 <phase_6+0x9a>
 8048e30:	c7 42 08 00 00 00 00 	movl   $0x0,0x8(%edx)
 8048e37:	be 05 00 00 00       	mov    $0x5,%esi
 8048e3c:	8b 43 08             	mov    0x8(%ebx),%eax
 8048e3f:	8b 00                	mov    (%eax),%eax
 8048e41:	39 03                	cmp    %eax,(%ebx)
 8048e43:	7d 05                	jge    8048e4a <phase_6+0xc3>
 8048e45:	e8 77 02 00 00       	call   80490c1 <explode_bomb>
 8048e4a:	8b 5b 08             	mov    0x8(%ebx),%ebx
 8048e4d:	83 ee 01             	sub    $0x1,%esi
 8048e50:	75 ea                	jne    8048e3c <phase_6+0xb5>
 8048e52:	8b 45 f4             	mov    -0xc(%ebp),%eax
 8048e55:	65 33 05 14 00 00 00 	xor    %gs:0x14,%eax
 8048e5c:	74 05                	je     8048e63 <phase_6+0xdc>
 8048e5e:	e8 2d f9 ff ff       	call   8048790 <__stack_chk_fail@plt>
 8048e63:	8d 65 f8             	lea    -0x8(%ebp),%esp
 8048e66:	5b                   	pop    %ebx
 8048e67:	5e                   	pop    %esi
 8048e68:	5d                   	pop    %ebp
 8048e69:	c3                   	ret    

08048e6a <fun7>:
 8048e6a:	55                   	push   %ebp
 8048e6b:	89 e5                	mov    %esp,%ebp
 8048e6d:	53                   	push   %ebx
 8048e6e:	83 ec 04             	sub    $0x4,%esp
 8048e71:	8b 55 08             	mov    0x8(%ebp),%edx
 8048e74:	8b 4d 0c             	mov    0xc(%ebp),%ecx
 8048e77:	85 d2                	test   %edx,%edx
 8048e79:	74 37                	je     8048eb2 <fun7+0x48>
 8048e7b:	8b 1a                	mov    (%edx),%ebx
 8048e7d:	39 cb                	cmp    %ecx,%ebx
 8048e7f:	7e 13                	jle    8048e94 <fun7+0x2a>
 8048e81:	83 ec 08             	sub    $0x8,%esp
 8048e84:	51                   	push   %ecx
 8048e85:	ff 72 04             	pushl  0x4(%edx)
 8048e88:	e8 dd ff ff ff       	call   8048e6a <fun7>
 8048e8d:	83 c4 10             	add    $0x10,%esp
 8048e90:	01 c0                	add    %eax,%eax
 8048e92:	eb 23                	jmp    8048eb7 <fun7+0x4d>
 8048e94:	b8 00 00 00 00       	mov    $0x0,%eax
 8048e99:	39 cb                	cmp    %ecx,%ebx
 8048e9b:	74 1a                	je     8048eb7 <fun7+0x4d>
 8048e9d:	83 ec 08             	sub    $0x8,%esp
 8048ea0:	51                   	push   %ecx
 8048ea1:	ff 72 08             	pushl  0x8(%edx)
 8048ea4:	e8 c1 ff ff ff       	call   8048e6a <fun7>
 8048ea9:	83 c4 10             	add    $0x10,%esp
 8048eac:	8d 44 00 01          	lea    0x1(%eax,%eax,1),%eax
 8048eb0:	eb 05                	jmp    8048eb7 <fun7+0x4d>
 8048eb2:	b8 ff ff ff ff       	mov    $0xffffffff,%eax
 8048eb7:	8b 5d fc             	mov    -0x4(%ebp),%ebx
 8048eba:	c9                   	leave  
 8048ebb:	c3                   	ret    

08048ebc <secret_phase>:
 8048ebc:	55                   	push   %ebp
 8048ebd:	89 e5                	mov    %esp,%ebp
 8048ebf:	53                   	push   %ebx
 8048ec0:	83 ec 04             	sub    $0x4,%esp
 8048ec3:	e8 5b 02 00 00       	call   8049123 <read_line>
 8048ec8:	83 ec 04             	sub    $0x4,%esp
 8048ecb:	6a 0a                	push   $0xa
 8048ecd:	6a 00                	push   $0x0
 8048ecf:	50                   	push   %eax
 8048ed0:	e8 ab f9 ff ff       	call   8048880 <strtol@plt>
 8048ed5:	89 c3                	mov    %eax,%ebx
 8048ed7:	8d 40 ff             	lea    -0x1(%eax),%eax
 8048eda:	83 c4 10             	add    $0x10,%esp
 8048edd:	3d e8 03 00 00       	cmp    $0x3e8,%eax
 8048ee2:	76 05                	jbe    8048ee9 <secret_phase+0x2d>
 8048ee4:	e8 d8 01 00 00       	call   80490c1 <explode_bomb>
 8048ee9:	83 ec 08             	sub    $0x8,%esp
 8048eec:	53                   	push   %ebx
 8048eed:	68 88 c0 04 08       	push   $0x804c088
 8048ef2:	e8 73 ff ff ff       	call   8048e6a <fun7>
 8048ef7:	83 c4 10             	add    $0x10,%esp
 8048efa:	83 f8 02             	cmp    $0x2,%eax
 8048efd:	74 05                	je     8048f04 <secret_phase+0x48>
 8048eff:	e8 bd 01 00 00       	call   80490c1 <explode_bomb>
 8048f04:	83 ec 0c             	sub    $0xc,%esp
 8048f07:	68 50 a0 04 08       	push   $0x804a050
 8048f0c:	e8 af f8 ff ff       	call   80487c0 <puts@plt>
 8048f11:	e8 10 03 00 00       	call   8049226 <phase_defused>
 8048f16:	83 c4 10             	add    $0x10,%esp
 8048f19:	8b 5d fc             	mov    -0x4(%ebp),%ebx
 8048f1c:	c9                   	leave  
 8048f1d:	c3                   	ret    

08048f1e <sig_handler>:
 8048f1e:	55                   	push   %ebp
 8048f1f:	89 e5                	mov    %esp,%ebp
 8048f21:	83 ec 14             	sub    $0x14,%esp
 8048f24:	68 b0 a0 04 08       	push   $0x804a0b0
 8048f29:	e8 92 f8 ff ff       	call   80487c0 <puts@plt>
 8048f2e:	c7 04 24 03 00 00 00 	movl   $0x3,(%esp)
 8048f35:	e8 36 f8 ff ff       	call   8048770 <sleep@plt>
 8048f3a:	83 c4 08             	add    $0x8,%esp
 8048f3d:	68 72 a1 04 08       	push   $0x804a172
 8048f42:	6a 01                	push   $0x1
 8048f44:	e8 f7 f8 ff ff       	call   8048840 <__printf_chk@plt>
 8048f49:	83 c4 04             	add    $0x4,%esp
 8048f4c:	ff 35 c4 c3 04 08    	pushl  0x804c3c4
 8048f52:	e8 e9 f7 ff ff       	call   8048740 <fflush@plt>
 8048f57:	c7 04 24 01 00 00 00 	movl   $0x1,(%esp)
 8048f5e:	e8 0d f8 ff ff       	call   8048770 <sleep@plt>
 8048f63:	c7 04 24 7a a1 04 08 	movl   $0x804a17a,(%esp)
 8048f6a:	e8 51 f8 ff ff       	call   80487c0 <puts@plt>
 8048f6f:	c7 04 24 10 00 00 00 	movl   $0x10,(%esp)
 8048f76:	e8 65 f8 ff ff       	call   80487e0 <exit@plt>

08048f7b <invalid_phase>:
 8048f7b:	55                   	push   %ebp
 8048f7c:	89 e5                	mov    %esp,%ebp
 8048f7e:	83 ec 0c             	sub    $0xc,%esp
 8048f81:	ff 75 08             	pushl  0x8(%ebp)
 8048f84:	68 82 a1 04 08       	push   $0x804a182
 8048f89:	6a 01                	push   $0x1
 8048f8b:	e8 b0 f8 ff ff       	call   8048840 <__printf_chk@plt>
 8048f90:	c7 04 24 08 00 00 00 	movl   $0x8,(%esp)
 8048f97:	e8 44 f8 ff ff       	call   80487e0 <exit@plt>

08048f9c <string_length>:
 8048f9c:	55                   	push   %ebp
 8048f9d:	89 e5                	mov    %esp,%ebp
 8048f9f:	8b 55 08             	mov    0x8(%ebp),%edx
 8048fa2:	80 3a 00             	cmpb   $0x0,(%edx)
 8048fa5:	74 10                	je     8048fb7 <string_length+0x1b>
 8048fa7:	b8 00 00 00 00       	mov    $0x0,%eax
 8048fac:	83 c0 01             	add    $0x1,%eax
 8048faf:	80 3c 02 00          	cmpb   $0x0,(%edx,%eax,1)
 8048fb3:	75 f7                	jne    8048fac <string_length+0x10>
 8048fb5:	eb 05                	jmp    8048fbc <string_length+0x20>
 8048fb7:	b8 00 00 00 00       	mov    $0x0,%eax
 8048fbc:	5d                   	pop    %ebp
 8048fbd:	c3                   	ret    

08048fbe <strings_not_equal>:
 8048fbe:	55                   	push   %ebp
 8048fbf:	89 e5                	mov    %esp,%ebp
 8048fc1:	57                   	push   %edi
 8048fc2:	56                   	push   %esi
 8048fc3:	53                   	push   %ebx
 8048fc4:	8b 5d 08             	mov    0x8(%ebp),%ebx
 8048fc7:	8b 75 0c             	mov    0xc(%ebp),%esi
 8048fca:	53                   	push   %ebx
 8048fcb:	e8 cc ff ff ff       	call   8048f9c <string_length>
 8048fd0:	89 c7                	mov    %eax,%edi
 8048fd2:	89 34 24             	mov    %esi,(%esp)
 8048fd5:	e8 c2 ff ff ff       	call   8048f9c <string_length>
 8048fda:	83 c4 04             	add    $0x4,%esp
 8048fdd:	ba 01 00 00 00       	mov    $0x1,%edx
 8048fe2:	39 c7                	cmp    %eax,%edi
 8048fe4:	75 38                	jne    804901e <strings_not_equal+0x60>
 8048fe6:	0f b6 03             	movzbl (%ebx),%eax
 8048fe9:	84 c0                	test   %al,%al
 8048feb:	74 1e                	je     804900b <strings_not_equal+0x4d>
 8048fed:	3a 06                	cmp    (%esi),%al
 8048fef:	74 06                	je     8048ff7 <strings_not_equal+0x39>
 8048ff1:	eb 1f                	jmp    8049012 <strings_not_equal+0x54>
 8048ff3:	3a 06                	cmp    (%esi),%al
 8048ff5:	75 22                	jne    8049019 <strings_not_equal+0x5b>
 8048ff7:	83 c3 01             	add    $0x1,%ebx
 8048ffa:	83 c6 01             	add    $0x1,%esi
 8048ffd:	0f b6 03             	movzbl (%ebx),%eax
 8049000:	84 c0                	test   %al,%al
 8049002:	75 ef                	jne    8048ff3 <strings_not_equal+0x35>
 8049004:	ba 00 00 00 00       	mov    $0x0,%edx
 8049009:	eb 13                	jmp    804901e <strings_not_equal+0x60>
 804900b:	ba 00 00 00 00       	mov    $0x0,%edx
 8049010:	eb 0c                	jmp    804901e <strings_not_equal+0x60>
 8049012:	ba 01 00 00 00       	mov    $0x1,%edx
 8049017:	eb 05                	jmp    804901e <strings_not_equal+0x60>
 8049019:	ba 01 00 00 00       	mov    $0x1,%edx
 804901e:	89 d0                	mov    %edx,%eax
 8049020:	8d 65 f4             	lea    -0xc(%ebp),%esp
 8049023:	5b                   	pop    %ebx
 8049024:	5e                   	pop    %esi
 8049025:	5f                   	pop    %edi
 8049026:	5d                   	pop    %ebp
 8049027:	c3                   	ret    

08049028 <initialize_bomb>:
 8049028:	55                   	push   %ebp
 8049029:	89 e5                	mov    %esp,%ebp
 804902b:	83 ec 10             	sub    $0x10,%esp
 804902e:	68 1e 8f 04 08       	push   $0x8048f1e
 8049033:	6a 02                	push   $0x2
 8049035:	e8 26 f7 ff ff       	call   8048760 <signal@plt>
 804903a:	83 c4 10             	add    $0x10,%esp
 804903d:	c9                   	leave  
 804903e:	c3                   	ret    

0804903f <initialize_bomb_solve>:
 804903f:	55                   	push   %ebp
 8049040:	89 e5                	mov    %esp,%ebp
 8049042:	5d                   	pop    %ebp
 8049043:	c3                   	ret    

08049044 <blank_line>:
 8049044:	55                   	push   %ebp
 8049045:	89 e5                	mov    %esp,%ebp
 8049047:	56                   	push   %esi
 8049048:	53                   	push   %ebx
 8049049:	8b 75 08             	mov    0x8(%ebp),%esi
 804904c:	eb 14                	jmp    8049062 <blank_line+0x1e>
 804904e:	e8 5d f8 ff ff       	call   80488b0 <__ctype_b_loc@plt>
 8049053:	83 c6 01             	add    $0x1,%esi
 8049056:	0f be db             	movsbl %bl,%ebx
 8049059:	8b 00                	mov    (%eax),%eax
 804905b:	f6 44 58 01 20       	testb  $0x20,0x1(%eax,%ebx,2)
 8049060:	74 0e                	je     8049070 <blank_line+0x2c>
 8049062:	0f b6 1e             	movzbl (%esi),%ebx
 8049065:	84 db                	test   %bl,%bl
 8049067:	75 e5                	jne    804904e <blank_line+0xa>
 8049069:	b8 01 00 00 00       	mov    $0x1,%eax
 804906e:	eb 05                	jmp    8049075 <blank_line+0x31>
 8049070:	b8 00 00 00 00       	mov    $0x0,%eax
 8049075:	5b                   	pop    %ebx
 8049076:	5e                   	pop    %esi
 8049077:	5d                   	pop    %ebp
 8049078:	c3                   	ret    

08049079 <skip>:
 8049079:	55                   	push   %ebp
 804907a:	89 e5                	mov    %esp,%ebp
 804907c:	53                   	push   %ebx
 804907d:	83 ec 04             	sub    $0x4,%esp
 8049080:	83 ec 04             	sub    $0x4,%esp
 8049083:	ff 35 d0 c3 04 08    	pushl  0x804c3d0
 8049089:	6a 50                	push   $0x50
 804908b:	a1 cc c3 04 08       	mov    0x804c3cc,%eax
 8049090:	8d 04 80             	lea    (%eax,%eax,4),%eax
 8049093:	c1 e0 04             	shl    $0x4,%eax
 8049096:	05 e0 c3 04 08       	add    $0x804c3e0,%eax
 804909b:	50                   	push   %eax
 804909c:	e8 af f6 ff ff       	call   8048750 <fgets@plt>
 80490a1:	89 c3                	mov    %eax,%ebx
 80490a3:	83 c4 10             	add    $0x10,%esp
 80490a6:	85 c0                	test   %eax,%eax
 80490a8:	74 10                	je     80490ba <skip+0x41>
 80490aa:	83 ec 0c             	sub    $0xc,%esp
 80490ad:	50                   	push   %eax
 80490ae:	e8 91 ff ff ff       	call   8049044 <blank_line>
 80490b3:	83 c4 10             	add    $0x10,%esp
 80490b6:	85 c0                	test   %eax,%eax
 80490b8:	75 c6                	jne    8049080 <skip+0x7>
 80490ba:	89 d8                	mov    %ebx,%eax
 80490bc:	8b 5d fc             	mov    -0x4(%ebp),%ebx
 80490bf:	c9                   	leave  
 80490c0:	c3                   	ret    

080490c1 <explode_bomb>:
 80490c1:	55                   	push   %ebp
 80490c2:	89 e5                	mov    %esp,%ebp
 80490c4:	83 ec 14             	sub    $0x14,%esp
 80490c7:	68 93 a1 04 08       	push   $0x804a193
 80490cc:	e8 ef f6 ff ff       	call   80487c0 <puts@plt>
 80490d1:	c7 04 24 9c a1 04 08 	movl   $0x804a19c,(%esp)
 80490d8:	e8 e3 f6 ff ff       	call   80487c0 <puts@plt>
 80490dd:	c7 04 24 08 00 00 00 	movl   $0x8,(%esp)
 80490e4:	e8 f7 f6 ff ff       	call   80487e0 <exit@plt>

080490e9 <read_six_numbers>:
 80490e9:	55                   	push   %ebp
 80490ea:	89 e5                	mov    %esp,%ebp
 80490ec:	83 ec 08             	sub    $0x8,%esp
 80490ef:	8b 45 0c             	mov    0xc(%ebp),%eax
 80490f2:	8d 50 14             	lea    0x14(%eax),%edx
 80490f5:	52                   	push   %edx
 80490f6:	8d 50 10             	lea    0x10(%eax),%edx
 80490f9:	52                   	push   %edx
 80490fa:	8d 50 0c             	lea    0xc(%eax),%edx
 80490fd:	52                   	push   %edx
 80490fe:	8d 50 08             	lea    0x8(%eax),%edx
 8049101:	52                   	push   %edx
 8049102:	8d 50 04             	lea    0x4(%eax),%edx
 8049105:	52                   	push   %edx
 8049106:	50                   	push   %eax
 8049107:	68 b3 a1 04 08       	push   $0x804a1b3
 804910c:	ff 75 08             	pushl  0x8(%ebp)
 804910f:	e8 fc f6 ff ff       	call   8048810 <__isoc99_sscanf@plt>
 8049114:	83 c4 20             	add    $0x20,%esp
 8049117:	83 f8 05             	cmp    $0x5,%eax
 804911a:	7f 05                	jg     8049121 <read_six_numbers+0x38>
 804911c:	e8 a0 ff ff ff       	call   80490c1 <explode_bomb>
 8049121:	c9                   	leave  
 8049122:	c3                   	ret    

08049123 <read_line>:
 8049123:	55                   	push   %ebp
 8049124:	89 e5                	mov    %esp,%ebp
 8049126:	57                   	push   %edi
 8049127:	56                   	push   %esi
 8049128:	53                   	push   %ebx
 8049129:	83 ec 0c             	sub    $0xc,%esp
 804912c:	e8 48 ff ff ff       	call   8049079 <skip>
 8049131:	85 c0                	test   %eax,%eax
 8049133:	75 70                	jne    80491a5 <read_line+0x82>
 8049135:	a1 c0 c3 04 08       	mov    0x804c3c0,%eax
 804913a:	39 05 d0 c3 04 08    	cmp    %eax,0x804c3d0
 8049140:	75 19                	jne    804915b <read_line+0x38>
 8049142:	83 ec 0c             	sub    $0xc,%esp
 8049145:	68 c5 a1 04 08       	push   $0x804a1c5
 804914a:	e8 71 f6 ff ff       	call   80487c0 <puts@plt>
 804914f:	c7 04 24 08 00 00 00 	movl   $0x8,(%esp)
 8049156:	e8 85 f6 ff ff       	call   80487e0 <exit@plt>
 804915b:	83 ec 0c             	sub    $0xc,%esp
 804915e:	68 e3 a1 04 08       	push   $0x804a1e3
 8049163:	e8 48 f6 ff ff       	call   80487b0 <getenv@plt>
 8049168:	83 c4 10             	add    $0x10,%esp
 804916b:	85 c0                	test   %eax,%eax
 804916d:	74 0a                	je     8049179 <read_line+0x56>
 804916f:	83 ec 0c             	sub    $0xc,%esp
 8049172:	6a 00                	push   $0x0
 8049174:	e8 67 f6 ff ff       	call   80487e0 <exit@plt>
 8049179:	a1 c0 c3 04 08       	mov    0x804c3c0,%eax
 804917e:	a3 d0 c3 04 08       	mov    %eax,0x804c3d0
 8049183:	e8 f1 fe ff ff       	call   8049079 <skip>
 8049188:	85 c0                	test   %eax,%eax
 804918a:	75 19                	jne    80491a5 <read_line+0x82>
 804918c:	83 ec 0c             	sub    $0xc,%esp
 804918f:	68 c5 a1 04 08       	push   $0x804a1c5
 8049194:	e8 27 f6 ff ff       	call   80487c0 <puts@plt>
 8049199:	c7 04 24 00 00 00 00 	movl   $0x0,(%esp)
 80491a0:	e8 3b f6 ff ff       	call   80487e0 <exit@plt>
 80491a5:	8b 15 cc c3 04 08    	mov    0x804c3cc,%edx
 80491ab:	8d 1c 92             	lea    (%edx,%edx,4),%ebx
 80491ae:	c1 e3 04             	shl    $0x4,%ebx
 80491b1:	81 c3 e0 c3 04 08    	add    $0x804c3e0,%ebx
 80491b7:	b8 00 00 00 00       	mov    $0x0,%eax
 80491bc:	b9 ff ff ff ff       	mov    $0xffffffff,%ecx
 80491c1:	89 df                	mov    %ebx,%edi
 80491c3:	f2 ae                	repnz scas %es:(%edi),%al
 80491c5:	f7 d1                	not    %ecx
 80491c7:	83 e9 01             	sub    $0x1,%ecx
 80491ca:	83 f9 4e             	cmp    $0x4e,%ecx
 80491cd:	7e 36                	jle    8049205 <read_line+0xe2>
 80491cf:	83 ec 0c             	sub    $0xc,%esp
 80491d2:	68 ee a1 04 08       	push   $0x804a1ee
 80491d7:	e8 e4 f5 ff ff       	call   80487c0 <puts@plt>
 80491dc:	a1 cc c3 04 08       	mov    0x804c3cc,%eax
 80491e1:	8d 50 01             	lea    0x1(%eax),%edx
 80491e4:	89 15 cc c3 04 08    	mov    %edx,0x804c3cc
 80491ea:	6b c0 50             	imul   $0x50,%eax,%eax
 80491ed:	05 e0 c3 04 08       	add    $0x804c3e0,%eax
 80491f2:	be 09 a2 04 08       	mov    $0x804a209,%esi
 80491f7:	b9 04 00 00 00       	mov    $0x4,%ecx
 80491fc:	89 c7                	mov    %eax,%edi
 80491fe:	f3 a5                	rep movsl %ds:(%esi),%es:(%edi)
 8049200:	e8 bc fe ff ff       	call   80490c1 <explode_bomb>
 8049205:	8d 04 92             	lea    (%edx,%edx,4),%eax
 8049208:	c1 e0 04             	shl    $0x4,%eax
 804920b:	c6 84 01 df c3 04 08 	movb   $0x0,0x804c3df(%ecx,%eax,1)
 8049212:	00 
 8049213:	83 c2 01             	add    $0x1,%edx
 8049216:	89 15 cc c3 04 08    	mov    %edx,0x804c3cc
 804921c:	89 d8                	mov    %ebx,%eax
 804921e:	8d 65 f4             	lea    -0xc(%ebp),%esp
 8049221:	5b                   	pop    %ebx
 8049222:	5e                   	pop    %esi
 8049223:	5f                   	pop    %edi
 8049224:	5d                   	pop    %ebp
 8049225:	c3                   	ret    

08049226 <phase_defused>:
 8049226:	55                   	push   %ebp
 8049227:	89 e5                	mov    %esp,%ebp
 8049229:	83 ec 68             	sub    $0x68,%esp
 804922c:	65 a1 14 00 00 00    	mov    %gs:0x14,%eax
 8049232:	89 45 f4             	mov    %eax,-0xc(%ebp)
 8049235:	31 c0                	xor    %eax,%eax
 8049237:	83 3d cc c3 04 08 06 	cmpl   $0x6,0x804c3cc
 804923e:	75 6f                	jne    80492af <phase_defused+0x89>
 8049240:	83 ec 0c             	sub    $0xc,%esp
 8049243:	8d 45 a4             	lea    -0x5c(%ebp),%eax
 8049246:	50                   	push   %eax
 8049247:	8d 45 a0             	lea    -0x60(%ebp),%eax
 804924a:	50                   	push   %eax
 804924b:	8d 45 9c             	lea    -0x64(%ebp),%eax
 804924e:	50                   	push   %eax
 804924f:	68 19 a2 04 08       	push   $0x804a219
 8049254:	68 d0 c4 04 08       	push   $0x804c4d0
 8049259:	e8 b2 f5 ff ff       	call   8048810 <__isoc99_sscanf@plt>
 804925e:	83 c4 20             	add    $0x20,%esp
 8049261:	83 f8 03             	cmp    $0x3,%eax
 8049264:	75 39                	jne    804929f <phase_defused+0x79>
 8049266:	83 ec 08             	sub    $0x8,%esp
 8049269:	68 22 a2 04 08       	push   $0x804a222
 804926e:	8d 45 a4             	lea    -0x5c(%ebp),%eax
 8049271:	50                   	push   %eax
 8049272:	e8 47 fd ff ff       	call   8048fbe <strings_not_equal>
 8049277:	83 c4 10             	add    $0x10,%esp
 804927a:	85 c0                	test   %eax,%eax
 804927c:	75 21                	jne    804929f <phase_defused+0x79>
 804927e:	83 ec 0c             	sub    $0xc,%esp
 8049281:	68 e8 a0 04 08       	push   $0x804a0e8
 8049286:	e8 35 f5 ff ff       	call   80487c0 <puts@plt>
 804928b:	c7 04 24 10 a1 04 08 	movl   $0x804a110,(%esp)
 8049292:	e8 29 f5 ff ff       	call   80487c0 <puts@plt>
 8049297:	e8 20 fc ff ff       	call   8048ebc <secret_phase>
 804929c:	83 c4 10             	add    $0x10,%esp
 804929f:	83 ec 0c             	sub    $0xc,%esp
 80492a2:	68 48 a1 04 08       	push   $0x804a148
 80492a7:	e8 14 f5 ff ff       	call   80487c0 <puts@plt>
 80492ac:	83 c4 10             	add    $0x10,%esp
 80492af:	8b 45 f4             	mov    -0xc(%ebp),%eax
 80492b2:	65 33 05 14 00 00 00 	xor    %gs:0x14,%eax
 80492b9:	74 05                	je     80492c0 <phase_defused+0x9a>
 80492bb:	e8 d0 f4 ff ff       	call   8048790 <__stack_chk_fail@plt>
 80492c0:	c9                   	leave  
 80492c1:	c3                   	ret    

080492c2 <sigalrm_handler>:
 80492c2:	55                   	push   %ebp
 80492c3:	89 e5                	mov    %esp,%ebp
 80492c5:	83 ec 08             	sub    $0x8,%esp
 80492c8:	6a 00                	push   $0x0
 80492ca:	68 78 a2 04 08       	push   $0x804a278
 80492cf:	6a 01                	push   $0x1
 80492d1:	ff 35 a0 c3 04 08    	pushl  0x804c3a0
 80492d7:	e8 84 f5 ff ff       	call   8048860 <__fprintf_chk@plt>
 80492dc:	c7 04 24 01 00 00 00 	movl   $0x1,(%esp)
 80492e3:	e8 f8 f4 ff ff       	call   80487e0 <exit@plt>

080492e8 <rio_readlineb>:
 80492e8:	55                   	push   %ebp
 80492e9:	89 e5                	mov    %esp,%ebp
 80492eb:	57                   	push   %edi
 80492ec:	56                   	push   %esi
 80492ed:	53                   	push   %ebx
 80492ee:	83 ec 2c             	sub    $0x2c,%esp
 80492f1:	89 c3                	mov    %eax,%ebx
 80492f3:	89 d7                	mov    %edx,%edi
 80492f5:	89 c8                	mov    %ecx,%eax
 80492f7:	89 4d cc             	mov    %ecx,-0x34(%ebp)
 80492fa:	65 8b 0d 14 00 00 00 	mov    %gs:0x14,%ecx
 8049301:	89 4d e4             	mov    %ecx,-0x1c(%ebp)
 8049304:	31 c9                	xor    %ecx,%ecx
 8049306:	83 f8 01             	cmp    $0x1,%eax
 8049309:	76 7b                	jbe    8049386 <rio_readlineb+0x9e>
 804930b:	89 45 d0             	mov    %eax,-0x30(%ebp)
 804930e:	c7 45 d4 01 00 00 00 	movl   $0x1,-0x2c(%ebp)
 8049315:	8d 73 0c             	lea    0xc(%ebx),%esi
 8049318:	eb 2d                	jmp    8049347 <rio_readlineb+0x5f>
 804931a:	83 ec 04             	sub    $0x4,%esp
 804931d:	68 00 20 00 00       	push   $0x2000
 8049322:	56                   	push   %esi
 8049323:	ff 33                	pushl  (%ebx)
 8049325:	e8 06 f4 ff ff       	call   8048730 <read@plt>
 804932a:	89 43 04             	mov    %eax,0x4(%ebx)
 804932d:	83 c4 10             	add    $0x10,%esp
 8049330:	85 c0                	test   %eax,%eax
 8049332:	79 0c                	jns    8049340 <rio_readlineb+0x58>
 8049334:	e8 f7 f4 ff ff       	call   8048830 <__errno_location@plt>
 8049339:	83 38 04             	cmpl   $0x4,(%eax)
 804933c:	74 09                	je     8049347 <rio_readlineb+0x5f>
 804933e:	eb 69                	jmp    80493a9 <rio_readlineb+0xc1>
 8049340:	85 c0                	test   %eax,%eax
 8049342:	74 6a                	je     80493ae <rio_readlineb+0xc6>
 8049344:	89 73 08             	mov    %esi,0x8(%ebx)
 8049347:	8b 43 04             	mov    0x4(%ebx),%eax
 804934a:	85 c0                	test   %eax,%eax
 804934c:	7e cc                	jle    804931a <rio_readlineb+0x32>
 804934e:	8b 4b 08             	mov    0x8(%ebx),%ecx
 8049351:	0f b6 11             	movzbl (%ecx),%edx
 8049354:	88 55 e3             	mov    %dl,-0x1d(%ebp)
 8049357:	83 c1 01             	add    $0x1,%ecx
 804935a:	89 4b 08             	mov    %ecx,0x8(%ebx)
 804935d:	83 e8 01             	sub    $0x1,%eax
 8049360:	89 43 04             	mov    %eax,0x4(%ebx)
 8049363:	83 c7 01             	add    $0x1,%edi
 8049366:	88 57 ff             	mov    %dl,-0x1(%edi)
 8049369:	80 fa 0a             	cmp    $0xa,%dl
 804936c:	75 0a                	jne    8049378 <rio_readlineb+0x90>
 804936e:	eb 25                	jmp    8049395 <rio_readlineb+0xad>
 8049370:	83 7d d4 01          	cmpl   $0x1,-0x2c(%ebp)
 8049374:	75 1f                	jne    8049395 <rio_readlineb+0xad>
 8049376:	eb 23                	jmp    804939b <rio_readlineb+0xb3>
 8049378:	83 45 d4 01          	addl   $0x1,-0x2c(%ebp)
 804937c:	8b 45 d4             	mov    -0x2c(%ebp),%eax
 804937f:	3b 45 d0             	cmp    -0x30(%ebp),%eax
 8049382:	74 0b                	je     804938f <rio_readlineb+0xa7>
 8049384:	eb c1                	jmp    8049347 <rio_readlineb+0x5f>
 8049386:	c7 45 d4 01 00 00 00 	movl   $0x1,-0x2c(%ebp)
 804938d:	eb 06                	jmp    8049395 <rio_readlineb+0xad>
 804938f:	8b 45 cc             	mov    -0x34(%ebp),%eax
 8049392:	89 45 d4             	mov    %eax,-0x2c(%ebp)
 8049395:	c6 07 00             	movb   $0x0,(%edi)
 8049398:	8b 45 d4             	mov    -0x2c(%ebp),%eax
 804939b:	8b 4d e4             	mov    -0x1c(%ebp),%ecx
 804939e:	65 33 0d 14 00 00 00 	xor    %gs:0x14,%ecx
 80493a5:	74 17                	je     80493be <rio_readlineb+0xd6>
 80493a7:	eb 10                	jmp    80493b9 <rio_readlineb+0xd1>
 80493a9:	b8 ff ff ff ff       	mov    $0xffffffff,%eax
 80493ae:	85 c0                	test   %eax,%eax
 80493b0:	74 be                	je     8049370 <rio_readlineb+0x88>
 80493b2:	b8 ff ff ff ff       	mov    $0xffffffff,%eax
 80493b7:	eb e2                	jmp    804939b <rio_readlineb+0xb3>
 80493b9:	e8 d2 f3 ff ff       	call   8048790 <__stack_chk_fail@plt>
 80493be:	8d 65 f4             	lea    -0xc(%ebp),%esp
 80493c1:	5b                   	pop    %ebx
 80493c2:	5e                   	pop    %esi
 80493c3:	5f                   	pop    %edi
 80493c4:	5d                   	pop    %ebp
 80493c5:	c3                   	ret    

080493c6 <submitr>:
 80493c6:	55                   	push   %ebp
 80493c7:	89 e5                	mov    %esp,%ebp
 80493c9:	57                   	push   %edi
 80493ca:	56                   	push   %esi
 80493cb:	53                   	push   %ebx
 80493cc:	81 ec 60 a0 00 00    	sub    $0xa060,%esp
 80493d2:	8b 75 08             	mov    0x8(%ebp),%esi
 80493d5:	8b 45 10             	mov    0x10(%ebp),%eax
 80493d8:	89 85 b0 5f ff ff    	mov    %eax,-0xa050(%ebp)
 80493de:	8b 45 14             	mov    0x14(%ebp),%eax
 80493e1:	89 85 ac 5f ff ff    	mov    %eax,-0xa054(%ebp)
 80493e7:	8b 45 18             	mov    0x18(%ebp),%eax
 80493ea:	89 85 a8 5f ff ff    	mov    %eax,-0xa058(%ebp)
 80493f0:	8b 5d 1c             	mov    0x1c(%ebp),%ebx
 80493f3:	8b 45 20             	mov    0x20(%ebp),%eax
 80493f6:	89 85 a4 5f ff ff    	mov    %eax,-0xa05c(%ebp)
 80493fc:	65 a1 14 00 00 00    	mov    %gs:0x14,%eax
 8049402:	89 45 e4             	mov    %eax,-0x1c(%ebp)
 8049405:	31 c0                	xor    %eax,%eax
 8049407:	c7 85 c4 5f ff ff 00 	movl   $0x0,-0xa03c(%ebp)
 804940e:	00 00 00 
 8049411:	6a 00                	push   $0x0
 8049413:	6a 01                	push   $0x1
 8049415:	6a 02                	push   $0x2
 8049417:	e8 34 f4 ff ff       	call   8048850 <socket@plt>
 804941c:	89 85 b4 5f ff ff    	mov    %eax,-0xa04c(%ebp)
 8049422:	83 c4 10             	add    $0x10,%esp
 8049425:	85 c0                	test   %eax,%eax
 8049427:	79 54                	jns    804947d <submitr+0xb7>
 8049429:	8b 85 a4 5f ff ff    	mov    -0xa05c(%ebp),%eax
 804942f:	c7 00 45 72 72 6f    	movl   $0x6f727245,(%eax)
 8049435:	c7 40 04 72 3a 20 43 	movl   $0x43203a72,0x4(%eax)
 804943c:	c7 40 08 6c 69 65 6e 	movl   $0x6e65696c,0x8(%eax)
 8049443:	c7 40 0c 74 20 75 6e 	movl   $0x6e752074,0xc(%eax)
 804944a:	c7 40 10 61 62 6c 65 	movl   $0x656c6261,0x10(%eax)
 8049451:	c7 40 14 20 74 6f 20 	movl   $0x206f7420,0x14(%eax)
 8049458:	c7 40 18 63 72 65 61 	movl   $0x61657263,0x18(%eax)
 804945f:	c7 40 1c 74 65 20 73 	movl   $0x73206574,0x1c(%eax)
 8049466:	c7 40 20 6f 63 6b 65 	movl   $0x656b636f,0x20(%eax)
 804946d:	66 c7 40 24 74 00    	movw   $0x74,0x24(%eax)
 8049473:	b8 ff ff ff ff       	mov    $0xffffffff,%eax
 8049478:	e9 a0 06 00 00       	jmp    8049b1d <submitr+0x757>
 804947d:	83 ec 0c             	sub    $0xc,%esp
 8049480:	56                   	push   %esi
 8049481:	e8 ea f3 ff ff       	call   8048870 <gethostbyname@plt>
 8049486:	83 c4 10             	add    $0x10,%esp
 8049489:	85 c0                	test   %eax,%eax
 804948b:	75 77                	jne    8049504 <submitr+0x13e>
 804948d:	8b 85 a4 5f ff ff    	mov    -0xa05c(%ebp),%eax
 8049493:	c7 00 45 72 72 6f    	movl   $0x6f727245,(%eax)
 8049499:	c7 40 04 72 3a 20 44 	movl   $0x44203a72,0x4(%eax)
 80494a0:	c7 40 08 4e 53 20 69 	movl   $0x6920534e,0x8(%eax)
 80494a7:	c7 40 0c 73 20 75 6e 	movl   $0x6e752073,0xc(%eax)
 80494ae:	c7 40 10 61 62 6c 65 	movl   $0x656c6261,0x10(%eax)
 80494b5:	c7 40 14 20 74 6f 20 	movl   $0x206f7420,0x14(%eax)
 80494bc:	c7 40 18 72 65 73 6f 	movl   $0x6f736572,0x18(%eax)
 80494c3:	c7 40 1c 6c 76 65 20 	movl   $0x2065766c,0x1c(%eax)
 80494ca:	c7 40 20 73 65 72 76 	movl   $0x76726573,0x20(%eax)
 80494d1:	c7 40 24 65 72 20 61 	movl   $0x61207265,0x24(%eax)
 80494d8:	c7 40 28 64 64 72 65 	movl   $0x65726464,0x28(%eax)
 80494df:	66 c7 40 2c 73 73    	movw   $0x7373,0x2c(%eax)
 80494e5:	c6 40 2e 00          	movb   $0x0,0x2e(%eax)
 80494e9:	83 ec 0c             	sub    $0xc,%esp
 80494ec:	ff b5 b4 5f ff ff    	pushl  -0xa04c(%ebp)
 80494f2:	e8 a9 f3 ff ff       	call   80488a0 <close@plt>
 80494f7:	83 c4 10             	add    $0x10,%esp
 80494fa:	b8 ff ff ff ff       	mov    $0xffffffff,%eax
 80494ff:	e9 19 06 00 00       	jmp    8049b1d <submitr+0x757>
 8049504:	8d b5 c8 5f ff ff    	lea    -0xa038(%ebp),%esi
 804950a:	c7 85 c8 5f ff ff 00 	movl   $0x0,-0xa038(%ebp)
 8049511:	00 00 00 
 8049514:	c7 85 cc 5f ff ff 00 	movl   $0x0,-0xa034(%ebp)
 804951b:	00 00 00 
 804951e:	c7 85 d0 5f ff ff 00 	movl   $0x0,-0xa030(%ebp)
 8049525:	00 00 00 
 8049528:	c7 85 d4 5f ff ff 00 	movl   $0x0,-0xa02c(%ebp)
 804952f:	00 00 00 
 8049532:	66 c7 85 c8 5f ff ff 	movw   $0x2,-0xa038(%ebp)
 8049539:	02 00 
 804953b:	6a 0c                	push   $0xc
 804953d:	ff 70 0c             	pushl  0xc(%eax)
 8049540:	8b 40 10             	mov    0x10(%eax),%eax
 8049543:	ff 30                	pushl  (%eax)
 8049545:	8d 85 cc 5f ff ff    	lea    -0xa034(%ebp),%eax
 804954b:	50                   	push   %eax
 804954c:	e8 7f f2 ff ff       	call   80487d0 <__memmove_chk@plt>
 8049551:	0f b7 45 0c          	movzwl 0xc(%ebp),%eax
 8049555:	66 c1 c8 08          	ror    $0x8,%ax
 8049559:	66 89 85 ca 5f ff ff 	mov    %ax,-0xa036(%ebp)
 8049560:	83 c4 0c             	add    $0xc,%esp
 8049563:	6a 10                	push   $0x10
 8049565:	56                   	push   %esi
 8049566:	ff b5 b4 5f ff ff    	pushl  -0xa04c(%ebp)
 804956c:	e8 1f f3 ff ff       	call   8048890 <connect@plt>
 8049571:	83 c4 10             	add    $0x10,%esp
 8049574:	85 c0                	test   %eax,%eax
 8049576:	79 69                	jns    80495e1 <submitr+0x21b>
 8049578:	8b 85 a4 5f ff ff    	mov    -0xa05c(%ebp),%eax
 804957e:	c7 00 45 72 72 6f    	movl   $0x6f727245,(%eax)
 8049584:	c7 40 04 72 3a 20 55 	movl   $0x55203a72,0x4(%eax)
 804958b:	c7 40 08 6e 61 62 6c 	movl   $0x6c62616e,0x8(%eax)
 8049592:	c7 40 0c 65 20 74 6f 	movl   $0x6f742065,0xc(%eax)
 8049599:	c7 40 10 20 63 6f 6e 	movl   $0x6e6f6320,0x10(%eax)
 80495a0:	c7 40 14 6e 65 63 74 	movl   $0x7463656e,0x14(%eax)
 80495a7:	c7 40 18 20 74 6f 20 	movl   $0x206f7420,0x18(%eax)
 80495ae:	c7 40 1c 74 68 65 20 	movl   $0x20656874,0x1c(%eax)
 80495b5:	c7 40 20 73 65 72 76 	movl   $0x76726573,0x20(%eax)
 80495bc:	66 c7 40 24 65 72    	movw   $0x7265,0x24(%eax)
 80495c2:	c6 40 26 00          	movb   $0x0,0x26(%eax)
 80495c6:	83 ec 0c             	sub    $0xc,%esp
 80495c9:	ff b5 b4 5f ff ff    	pushl  -0xa04c(%ebp)
 80495cf:	e8 cc f2 ff ff       	call   80488a0 <close@plt>
 80495d4:	83 c4 10             	add    $0x10,%esp
 80495d7:	b8 ff ff ff ff       	mov    $0xffffffff,%eax
 80495dc:	e9 3c 05 00 00       	jmp    8049b1d <submitr+0x757>
 80495e1:	ba ff ff ff ff       	mov    $0xffffffff,%edx
 80495e6:	b8 00 00 00 00       	mov    $0x0,%eax
 80495eb:	89 d1                	mov    %edx,%ecx
 80495ed:	89 df                	mov    %ebx,%edi
 80495ef:	f2 ae                	repnz scas %es:(%edi),%al
 80495f1:	89 ce                	mov    %ecx,%esi
 80495f3:	f7 d6                	not    %esi
 80495f5:	89 d1                	mov    %edx,%ecx
 80495f7:	8b bd b0 5f ff ff    	mov    -0xa050(%ebp),%edi
 80495fd:	f2 ae                	repnz scas %es:(%edi),%al
 80495ff:	89 8d a0 5f ff ff    	mov    %ecx,-0xa060(%ebp)
 8049605:	89 d1                	mov    %edx,%ecx
 8049607:	8b bd ac 5f ff ff    	mov    -0xa054(%ebp),%edi
 804960d:	f2 ae                	repnz scas %es:(%edi),%al
 804960f:	89 cf                	mov    %ecx,%edi
 8049611:	f7 d7                	not    %edi
 8049613:	89 bd 9c 5f ff ff    	mov    %edi,-0xa064(%ebp)
 8049619:	89 d1                	mov    %edx,%ecx
 804961b:	8b bd a8 5f ff ff    	mov    -0xa058(%ebp),%edi
 8049621:	f2 ae                	repnz scas %es:(%edi),%al
 8049623:	8b 95 9c 5f ff ff    	mov    -0xa064(%ebp),%edx
 8049629:	2b 95 a0 5f ff ff    	sub    -0xa060(%ebp),%edx
 804962f:	29 ca                	sub    %ecx,%edx
 8049631:	8d 44 76 fd          	lea    -0x3(%esi,%esi,2),%eax
 8049635:	8d 44 02 7b          	lea    0x7b(%edx,%eax,1),%eax
 8049639:	3d 00 20 00 00       	cmp    $0x2000,%eax
 804963e:	0f 86 82 00 00 00    	jbe    80496c6 <submitr+0x300>
 8049644:	8b 85 a4 5f ff ff    	mov    -0xa05c(%ebp),%eax
 804964a:	c7 00 45 72 72 6f    	movl   $0x6f727245,(%eax)
 8049650:	c7 40 04 72 3a 20 52 	movl   $0x52203a72,0x4(%eax)
 8049657:	c7 40 08 65 73 75 6c 	movl   $0x6c757365,0x8(%eax)
 804965e:	c7 40 0c 74 20 73 74 	movl   $0x74732074,0xc(%eax)
 8049665:	c7 40 10 72 69 6e 67 	movl   $0x676e6972,0x10(%eax)
 804966c:	c7 40 14 20 74 6f 6f 	movl   $0x6f6f7420,0x14(%eax)
 8049673:	c7 40 18 20 6c 61 72 	movl   $0x72616c20,0x18(%eax)
 804967a:	c7 40 1c 67 65 2e 20 	movl   $0x202e6567,0x1c(%eax)
 8049681:	c7 40 20 49 6e 63 72 	movl   $0x72636e49,0x20(%eax)
 8049688:	c7 40 24 65 61 73 65 	movl   $0x65736165,0x24(%eax)
 804968f:	c7 40 28 20 53 55 42 	movl   $0x42555320,0x28(%eax)
 8049696:	c7 40 2c 4d 49 54 52 	movl   $0x5254494d,0x2c(%eax)
 804969d:	c7 40 30 5f 4d 41 58 	movl   $0x58414d5f,0x30(%eax)
 80496a4:	c7 40 34 42 55 46 00 	movl   $0x465542,0x34(%eax)
 80496ab:	83 ec 0c             	sub    $0xc,%esp
 80496ae:	ff b5 b4 5f ff ff    	pushl  -0xa04c(%ebp)
 80496b4:	e8 e7 f1 ff ff       	call   80488a0 <close@plt>
 80496b9:	83 c4 10             	add    $0x10,%esp
 80496bc:	b8 ff ff ff ff       	mov    $0xffffffff,%eax
 80496c1:	e9 57 04 00 00       	jmp    8049b1d <submitr+0x757>
 80496c6:	8d 95 e4 9f ff ff    	lea    -0x601c(%ebp),%edx
 80496cc:	b9 00 08 00 00       	mov    $0x800,%ecx
 80496d1:	b8 00 00 00 00       	mov    $0x0,%eax
 80496d6:	89 d7                	mov    %edx,%edi
 80496d8:	f3 ab                	rep stos %eax,%es:(%edi)
 80496da:	b9 ff ff ff ff       	mov    $0xffffffff,%ecx
 80496df:	89 df                	mov    %ebx,%edi
 80496e1:	f2 ae                	repnz scas %es:(%edi),%al
 80496e3:	f7 d1                	not    %ecx
 80496e5:	89 ce                	mov    %ecx,%esi
 80496e7:	83 ee 01             	sub    $0x1,%esi
 80496ea:	0f 84 8a 04 00 00    	je     8049b7a <submitr+0x7b4>
 80496f0:	89 d7                	mov    %edx,%edi
 80496f2:	0f b6 13             	movzbl (%ebx),%edx
 80496f5:	8d 4a d6             	lea    -0x2a(%edx),%ecx
 80496f8:	b8 01 00 00 00       	mov    $0x1,%eax
 80496fd:	80 f9 0f             	cmp    $0xf,%cl
 8049700:	77 0d                	ja     804970f <submitr+0x349>
 8049702:	b8 d9 ff 00 00       	mov    $0xffd9,%eax
 8049707:	d3 e8                	shr    %cl,%eax
 8049709:	83 f0 01             	xor    $0x1,%eax
 804970c:	83 e0 01             	and    $0x1,%eax
 804970f:	80 fa 5f             	cmp    $0x5f,%dl
 8049712:	0f 94 c1             	sete   %cl
 8049715:	38 c1                	cmp    %al,%cl
 8049717:	73 0c                	jae    8049725 <submitr+0x35f>
 8049719:	89 d0                	mov    %edx,%eax
 804971b:	83 e0 df             	and    $0xffffffdf,%eax
 804971e:	83 e8 41             	sub    $0x41,%eax
 8049721:	3c 19                	cmp    $0x19,%al
 8049723:	77 07                	ja     804972c <submitr+0x366>
 8049725:	88 17                	mov    %dl,(%edi)
 8049727:	8d 7f 01             	lea    0x1(%edi),%edi
 804972a:	eb 5c                	jmp    8049788 <submitr+0x3c2>
 804972c:	80 fa 20             	cmp    $0x20,%dl
 804972f:	75 08                	jne    8049739 <submitr+0x373>
 8049731:	c6 07 2b             	movb   $0x2b,(%edi)
 8049734:	8d 7f 01             	lea    0x1(%edi),%edi
 8049737:	eb 4f                	jmp    8049788 <submitr+0x3c2>
 8049739:	8d 42 e0             	lea    -0x20(%edx),%eax
 804973c:	3c 5f                	cmp    $0x5f,%al
 804973e:	76 09                	jbe    8049749 <submitr+0x383>
 8049740:	80 fa 09             	cmp    $0x9,%dl
 8049743:	0f 85 e9 03 00 00    	jne    8049b32 <submitr+0x76c>
 8049749:	83 ec 0c             	sub    $0xc,%esp
 804974c:	0f b6 d2             	movzbl %dl,%edx
 804974f:	52                   	push   %edx
 8049750:	68 84 a3 04 08       	push   $0x804a384
 8049755:	6a 08                	push   $0x8
 8049757:	6a 01                	push   $0x1
 8049759:	8d 85 e4 df ff ff    	lea    -0x201c(%ebp),%eax
 804975f:	50                   	push   %eax
 8049760:	e8 5b f1 ff ff       	call   80488c0 <__sprintf_chk@plt>
 8049765:	0f b6 85 e4 df ff ff 	movzbl -0x201c(%ebp),%eax
 804976c:	88 07                	mov    %al,(%edi)
 804976e:	0f b6 85 e5 df ff ff 	movzbl -0x201b(%ebp),%eax
 8049775:	88 47 01             	mov    %al,0x1(%edi)
 8049778:	0f b6 85 e6 df ff ff 	movzbl -0x201a(%ebp),%eax
 804977f:	88 47 02             	mov    %al,0x2(%edi)
 8049782:	83 c4 20             	add    $0x20,%esp
 8049785:	8d 7f 03             	lea    0x3(%edi),%edi
 8049788:	83 c3 01             	add    $0x1,%ebx
 804978b:	83 ee 01             	sub    $0x1,%esi
 804978e:	0f 85 5e ff ff ff    	jne    80496f2 <submitr+0x32c>
 8049794:	e9 e1 03 00 00       	jmp    8049b7a <submitr+0x7b4>
 8049799:	89 bd b0 5f ff ff    	mov    %edi,-0xa050(%ebp)
 804979f:	8b bd b4 5f ff ff    	mov    -0xa04c(%ebp),%edi
 80497a5:	83 ec 04             	sub    $0x4,%esp
 80497a8:	53                   	push   %ebx
 80497a9:	56                   	push   %esi
 80497aa:	57                   	push   %edi
 80497ab:	e8 50 f0 ff ff       	call   8048800 <write@plt>
 80497b0:	83 c4 10             	add    $0x10,%esp
 80497b3:	85 c0                	test   %eax,%eax
 80497b5:	7f 0f                	jg     80497c6 <submitr+0x400>
 80497b7:	e8 74 f0 ff ff       	call   8048830 <__errno_location@plt>
 80497bc:	83 38 04             	cmpl   $0x4,(%eax)
 80497bf:	75 15                	jne    80497d6 <submitr+0x410>
 80497c1:	b8 00 00 00 00       	mov    $0x0,%eax
 80497c6:	01 c6                	add    %eax,%esi
 80497c8:	29 c3                	sub    %eax,%ebx
 80497ca:	75 d9                	jne    80497a5 <submitr+0x3df>
 80497cc:	8b bd b0 5f ff ff    	mov    -0xa050(%ebp),%edi
 80497d2:	85 ff                	test   %edi,%edi
 80497d4:	79 6d                	jns    8049843 <submitr+0x47d>
 80497d6:	8b 85 a4 5f ff ff    	mov    -0xa05c(%ebp),%eax
 80497dc:	c7 00 45 72 72 6f    	movl   $0x6f727245,(%eax)
 80497e2:	c7 40 04 72 3a 20 43 	movl   $0x43203a72,0x4(%eax)
 80497e9:	c7 40 08 6c 69 65 6e 	movl   $0x6e65696c,0x8(%eax)
 80497f0:	c7 40 0c 74 20 75 6e 	movl   $0x6e752074,0xc(%eax)
 80497f7:	c7 40 10 61 62 6c 65 	movl   $0x656c6261,0x10(%eax)
 80497fe:	c7 40 14 20 74 6f 20 	movl   $0x206f7420,0x14(%eax)
 8049805:	c7 40 18 77 72 69 74 	movl   $0x74697277,0x18(%eax)
 804980c:	c7 40 1c 65 20 74 6f 	movl   $0x6f742065,0x1c(%eax)
 8049813:	c7 40 20 20 74 68 65 	movl   $0x65687420,0x20(%eax)
 804981a:	c7 40 24 20 73 65 72 	movl   $0x72657320,0x24(%eax)
 8049821:	c7 40 28 76 65 72 00 	movl   $0x726576,0x28(%eax)
 8049828:	83 ec 0c             	sub    $0xc,%esp
 804982b:	ff b5 b4 5f ff ff    	pushl  -0xa04c(%ebp)
 8049831:	e8 6a f0 ff ff       	call   80488a0 <close@plt>
 8049836:	83 c4 10             	add    $0x10,%esp
 8049839:	b8 ff ff ff ff       	mov    $0xffffffff,%eax
 804983e:	e9 da 02 00 00       	jmp    8049b1d <submitr+0x757>
 8049843:	8b 85 b4 5f ff ff    	mov    -0xa04c(%ebp),%eax
 8049849:	89 85 d8 5f ff ff    	mov    %eax,-0xa028(%ebp)
 804984f:	c7 85 dc 5f ff ff 00 	movl   $0x0,-0xa024(%ebp)
 8049856:	00 00 00 
 8049859:	8d 85 e4 5f ff ff    	lea    -0xa01c(%ebp),%eax
 804985f:	89 85 e0 5f ff ff    	mov    %eax,-0xa020(%ebp)
 8049865:	b9 00 20 00 00       	mov    $0x2000,%ecx
 804986a:	8d 95 e4 7f ff ff    	lea    -0x801c(%ebp),%edx
 8049870:	8d 85 d8 5f ff ff    	lea    -0xa028(%ebp),%eax
 8049876:	e8 6d fa ff ff       	call   80492e8 <rio_readlineb>
 804987b:	85 c0                	test   %eax,%eax
 804987d:	0f 8f 81 00 00 00    	jg     8049904 <submitr+0x53e>
 8049883:	8b 85 a4 5f ff ff    	mov    -0xa05c(%ebp),%eax
 8049889:	c7 00 45 72 72 6f    	movl   $0x6f727245,(%eax)
 804988f:	c7 40 04 72 3a 20 43 	movl   $0x43203a72,0x4(%eax)
 8049896:	c7 40 08 6c 69 65 6e 	movl   $0x6e65696c,0x8(%eax)
 804989d:	c7 40 0c 74 20 75 6e 	movl   $0x6e752074,0xc(%eax)
 80498a4:	c7 40 10 61 62 6c 65 	movl   $0x656c6261,0x10(%eax)
 80498ab:	c7 40 14 20 74 6f 20 	movl   $0x206f7420,0x14(%eax)
 80498b2:	c7 40 18 72 65 61 64 	movl   $0x64616572,0x18(%eax)
 80498b9:	c7 40 1c 20 66 69 72 	movl   $0x72696620,0x1c(%eax)
 80498c0:	c7 40 20 73 74 20 68 	movl   $0x68207473,0x20(%eax)
 80498c7:	c7 40 24 65 61 64 65 	movl   $0x65646165,0x24(%eax)
 80498ce:	c7 40 28 72 20 66 72 	movl   $0x72662072,0x28(%eax)
 80498d5:	c7 40 2c 6f 6d 20 73 	movl   $0x73206d6f,0x2c(%eax)
 80498dc:	c7 40 30 65 72 76 65 	movl   $0x65767265,0x30(%eax)
 80498e3:	66 c7 40 34 72 00    	movw   $0x72,0x34(%eax)
 80498e9:	83 ec 0c             	sub    $0xc,%esp
 80498ec:	ff b5 b4 5f ff ff    	pushl  -0xa04c(%ebp)
 80498f2:	e8 a9 ef ff ff       	call   80488a0 <close@plt>
 80498f7:	83 c4 10             	add    $0x10,%esp
 80498fa:	b8 ff ff ff ff       	mov    $0xffffffff,%eax
 80498ff:	e9 19 02 00 00       	jmp    8049b1d <submitr+0x757>
 8049904:	83 ec 0c             	sub    $0xc,%esp
 8049907:	8d 85 e4 df ff ff    	lea    -0x201c(%ebp),%eax
 804990d:	50                   	push   %eax
 804990e:	8d 85 c4 5f ff ff    	lea    -0xa03c(%ebp),%eax
 8049914:	50                   	push   %eax
 8049915:	8d 85 e4 bf ff ff    	lea    -0x401c(%ebp),%eax
 804991b:	50                   	push   %eax
 804991c:	68 8b a3 04 08       	push   $0x804a38b
 8049921:	8d 85 e4 7f ff ff    	lea    -0x801c(%ebp),%eax
 8049927:	50                   	push   %eax
 8049928:	e8 e3 ee ff ff       	call   8048810 <__isoc99_sscanf@plt>
 804992d:	8b 85 c4 5f ff ff    	mov    -0xa03c(%ebp),%eax
 8049933:	83 c4 20             	add    $0x20,%esp
 8049936:	3d c8 00 00 00       	cmp    $0xc8,%eax
 804993b:	0f 84 cc 00 00 00    	je     8049a0d <submitr+0x647>
 8049941:	83 ec 08             	sub    $0x8,%esp
 8049944:	8d 95 e4 df ff ff    	lea    -0x201c(%ebp),%edx
 804994a:	52                   	push   %edx
 804994b:	50                   	push   %eax
 804994c:	68 9c a2 04 08       	push   $0x804a29c
 8049951:	6a ff                	push   $0xffffffff
 8049953:	6a 01                	push   $0x1
 8049955:	ff b5 a4 5f ff ff    	pushl  -0xa05c(%ebp)
 804995b:	e8 60 ef ff ff       	call   80488c0 <__sprintf_chk@plt>
 8049960:	83 c4 14             	add    $0x14,%esp
 8049963:	ff b5 b4 5f ff ff    	pushl  -0xa04c(%ebp)
 8049969:	e8 32 ef ff ff       	call   80488a0 <close@plt>
 804996e:	83 c4 10             	add    $0x10,%esp
 8049971:	b8 ff ff ff ff       	mov    $0xffffffff,%eax
 8049976:	e9 a2 01 00 00       	jmp    8049b1d <submitr+0x757>
 804997b:	b9 00 20 00 00       	mov    $0x2000,%ecx
 8049980:	8d 95 e4 7f ff ff    	lea    -0x801c(%ebp),%edx
 8049986:	8d 85 d8 5f ff ff    	lea    -0xa028(%ebp),%eax
 804998c:	e8 57 f9 ff ff       	call   80492e8 <rio_readlineb>
 8049991:	85 c0                	test   %eax,%eax
 8049993:	7f 78                	jg     8049a0d <submitr+0x647>
 8049995:	8b 85 a4 5f ff ff    	mov    -0xa05c(%ebp),%eax
 804999b:	c7 00 45 72 72 6f    	movl   $0x6f727245,(%eax)
 80499a1:	c7 40 04 72 3a 20 43 	movl   $0x43203a72,0x4(%eax)
 80499a8:	c7 40 08 6c 69 65 6e 	movl   $0x6e65696c,0x8(%eax)
 80499af:	c7 40 0c 74 20 75 6e 	movl   $0x6e752074,0xc(%eax)
 80499b6:	c7 40 10 61 62 6c 65 	movl   $0x656c6261,0x10(%eax)
 80499bd:	c7 40 14 20 74 6f 20 	movl   $0x206f7420,0x14(%eax)
 80499c4:	c7 40 18 72 65 61 64 	movl   $0x64616572,0x18(%eax)
 80499cb:	c7 40 1c 20 68 65 61 	movl   $0x61656820,0x1c(%eax)
 80499d2:	c7 40 20 64 65 72 73 	movl   $0x73726564,0x20(%eax)
 80499d9:	c7 40 24 20 66 72 6f 	movl   $0x6f726620,0x24(%eax)
 80499e0:	c7 40 28 6d 20 73 65 	movl   $0x6573206d,0x28(%eax)
 80499e7:	c7 40 2c 72 76 65 72 	movl   $0x72657672,0x2c(%eax)
 80499ee:	c6 40 30 00          	movb   $0x0,0x30(%eax)
 80499f2:	83 ec 0c             	sub    $0xc,%esp
 80499f5:	ff b5 b4 5f ff ff    	pushl  -0xa04c(%ebp)
 80499fb:	e8 a0 ee ff ff       	call   80488a0 <close@plt>
 8049a00:	83 c4 10             	add    $0x10,%esp
 8049a03:	b8 ff ff ff ff       	mov    $0xffffffff,%eax
 8049a08:	e9 10 01 00 00       	jmp    8049b1d <submitr+0x757>
 8049a0d:	80 bd e4 7f ff ff 0d 	cmpb   $0xd,-0x801c(%ebp)
 8049a14:	0f 85 61 ff ff ff    	jne    804997b <submitr+0x5b5>
 8049a1a:	80 bd e5 7f ff ff 0a 	cmpb   $0xa,-0x801b(%ebp)
 8049a21:	0f 85 54 ff ff ff    	jne    804997b <submitr+0x5b5>
 8049a27:	80 bd e6 7f ff ff 00 	cmpb   $0x0,-0x801a(%ebp)
 8049a2e:	0f 85 47 ff ff ff    	jne    804997b <submitr+0x5b5>
 8049a34:	b9 00 20 00 00       	mov    $0x2000,%ecx
 8049a39:	8d 95 e4 7f ff ff    	lea    -0x801c(%ebp),%edx
 8049a3f:	8d 85 d8 5f ff ff    	lea    -0xa028(%ebp),%eax
 8049a45:	e8 9e f8 ff ff       	call   80492e8 <rio_readlineb>
 8049a4a:	85 c0                	test   %eax,%eax
 8049a4c:	7f 7f                	jg     8049acd <submitr+0x707>
 8049a4e:	8b 85 a4 5f ff ff    	mov    -0xa05c(%ebp),%eax
 8049a54:	c7 00 45 72 72 6f    	movl   $0x6f727245,(%eax)
 8049a5a:	c7 40 04 72 3a 20 43 	movl   $0x43203a72,0x4(%eax)
 8049a61:	c7 40 08 6c 69 65 6e 	movl   $0x6e65696c,0x8(%eax)
 8049a68:	c7 40 0c 74 20 75 6e 	movl   $0x6e752074,0xc(%eax)
 8049a6f:	c7 40 10 61 62 6c 65 	movl   $0x656c6261,0x10(%eax)
 8049a76:	c7 40 14 20 74 6f 20 	movl   $0x206f7420,0x14(%eax)
 8049a7d:	c7 40 18 72 65 61 64 	movl   $0x64616572,0x18(%eax)
 8049a84:	c7 40 1c 20 73 74 61 	movl   $0x61747320,0x1c(%eax)
 8049a8b:	c7 40 20 74 75 73 20 	movl   $0x20737574,0x20(%eax)
 8049a92:	c7 40 24 6d 65 73 73 	movl   $0x7373656d,0x24(%eax)
 8049a99:	c7 40 28 61 67 65 20 	movl   $0x20656761,0x28(%eax)
 8049aa0:	c7 40 2c 66 72 6f 6d 	movl   $0x6d6f7266,0x2c(%eax)
 8049aa7:	c7 40 30 20 73 65 72 	movl   $0x72657320,0x30(%eax)
 8049aae:	c7 40 34 76 65 72 00 	movl   $0x726576,0x34(%eax)
 8049ab5:	83 ec 0c             	sub    $0xc,%esp
 8049ab8:	ff b5 b4 5f ff ff    	pushl  -0xa04c(%ebp)
 8049abe:	e8 dd ed ff ff       	call   80488a0 <close@plt>
 8049ac3:	83 c4 10             	add    $0x10,%esp
 8049ac6:	b8 ff ff ff ff       	mov    $0xffffffff,%eax
 8049acb:	eb 50                	jmp    8049b1d <submitr+0x757>
 8049acd:	83 ec 08             	sub    $0x8,%esp
 8049ad0:	8d 85 e4 7f ff ff    	lea    -0x801c(%ebp),%eax
 8049ad6:	50                   	push   %eax
 8049ad7:	8b b5 a4 5f ff ff    	mov    -0xa05c(%ebp),%esi
 8049add:	56                   	push   %esi
 8049ade:	e8 bd ec ff ff       	call   80487a0 <strcpy@plt>
 8049ae3:	83 c4 04             	add    $0x4,%esp
 8049ae6:	ff b5 b4 5f ff ff    	pushl  -0xa04c(%ebp)
 8049aec:	e8 af ed ff ff       	call   80488a0 <close@plt>
 8049af1:	0f b6 16             	movzbl (%esi),%edx
 8049af4:	b8 4f 00 00 00       	mov    $0x4f,%eax
 8049af9:	83 c4 10             	add    $0x10,%esp
 8049afc:	29 d0                	sub    %edx,%eax
 8049afe:	75 13                	jne    8049b13 <submitr+0x74d>
 8049b00:	0f b6 56 01          	movzbl 0x1(%esi),%edx
 8049b04:	b8 4b 00 00 00       	mov    $0x4b,%eax
 8049b09:	29 d0                	sub    %edx,%eax
 8049b0b:	75 06                	jne    8049b13 <submitr+0x74d>
 8049b0d:	0f b6 46 02          	movzbl 0x2(%esi),%eax
 8049b11:	f7 d8                	neg    %eax
 8049b13:	85 c0                	test   %eax,%eax
 8049b15:	0f 95 c0             	setne  %al
 8049b18:	0f b6 c0             	movzbl %al,%eax
 8049b1b:	f7 d8                	neg    %eax
 8049b1d:	8b 75 e4             	mov    -0x1c(%ebp),%esi
 8049b20:	65 33 35 14 00 00 00 	xor    %gs:0x14,%esi
 8049b27:	0f 84 ae 00 00 00    	je     8049bdb <submitr+0x815>
 8049b2d:	e9 a4 00 00 00       	jmp    8049bd6 <submitr+0x810>
 8049b32:	a1 cc a2 04 08       	mov    0x804a2cc,%eax
 8049b37:	8b b5 a4 5f ff ff    	mov    -0xa05c(%ebp),%esi
 8049b3d:	89 06                	mov    %eax,(%esi)
 8049b3f:	a1 0b a3 04 08       	mov    0x804a30b,%eax
 8049b44:	89 46 3f             	mov    %eax,0x3f(%esi)
 8049b47:	8d 7e 04             	lea    0x4(%esi),%edi
 8049b4a:	83 e7 fc             	and    $0xfffffffc,%edi
 8049b4d:	29 fe                	sub    %edi,%esi
 8049b4f:	89 f0                	mov    %esi,%eax
 8049b51:	be cc a2 04 08       	mov    $0x804a2cc,%esi
 8049b56:	29 c6                	sub    %eax,%esi
 8049b58:	83 c0 43             	add    $0x43,%eax
 8049b5b:	c1 e8 02             	shr    $0x2,%eax
 8049b5e:	89 c1                	mov    %eax,%ecx
 8049b60:	f3 a5                	rep movsl %ds:(%esi),%es:(%edi)
 8049b62:	83 ec 0c             	sub    $0xc,%esp
 8049b65:	ff b5 b4 5f ff ff    	pushl  -0xa04c(%ebp)
 8049b6b:	e8 30 ed ff ff       	call   80488a0 <close@plt>
 8049b70:	83 c4 10             	add    $0x10,%esp
 8049b73:	b8 ff ff ff ff       	mov    $0xffffffff,%eax
 8049b78:	eb a3                	jmp    8049b1d <submitr+0x757>
 8049b7a:	8d 85 e4 9f ff ff    	lea    -0x601c(%ebp),%eax
 8049b80:	50                   	push   %eax
 8049b81:	ff b5 a8 5f ff ff    	pushl  -0xa058(%ebp)
 8049b87:	ff b5 ac 5f ff ff    	pushl  -0xa054(%ebp)
 8049b8d:	ff b5 b0 5f ff ff    	pushl  -0xa050(%ebp)
 8049b93:	68 10 a3 04 08       	push   $0x804a310
 8049b98:	68 00 20 00 00       	push   $0x2000
 8049b9d:	6a 01                	push   $0x1
 8049b9f:	8d bd e4 7f ff ff    	lea    -0x801c(%ebp),%edi
 8049ba5:	57                   	push   %edi
 8049ba6:	e8 15 ed ff ff       	call   80488c0 <__sprintf_chk@plt>
 8049bab:	b8 00 00 00 00       	mov    $0x0,%eax
 8049bb0:	b9 ff ff ff ff       	mov    $0xffffffff,%ecx
 8049bb5:	f2 ae                	repnz scas %es:(%edi),%al
 8049bb7:	89 cf                	mov    %ecx,%edi
 8049bb9:	f7 d7                	not    %edi
 8049bbb:	83 ef 01             	sub    $0x1,%edi
 8049bbe:	83 c4 20             	add    $0x20,%esp
 8049bc1:	89 fb                	mov    %edi,%ebx
 8049bc3:	8d b5 e4 7f ff ff    	lea    -0x801c(%ebp),%esi
 8049bc9:	85 ff                	test   %edi,%edi
 8049bcb:	0f 85 c8 fb ff ff    	jne    8049799 <submitr+0x3d3>
 8049bd1:	e9 6d fc ff ff       	jmp    8049843 <submitr+0x47d>
 8049bd6:	e8 b5 eb ff ff       	call   8048790 <__stack_chk_fail@plt>
 8049bdb:	8d 65 f4             	lea    -0xc(%ebp),%esp
 8049bde:	5b                   	pop    %ebx
 8049bdf:	5e                   	pop    %esi
 8049be0:	5f                   	pop    %edi
 8049be1:	5d                   	pop    %ebp
 8049be2:	c3                   	ret    

08049be3 <init_timeout>:
 8049be3:	55                   	push   %ebp
 8049be4:	89 e5                	mov    %esp,%ebp
 8049be6:	53                   	push   %ebx
 8049be7:	83 ec 04             	sub    $0x4,%esp
 8049bea:	8b 5d 08             	mov    0x8(%ebp),%ebx
 8049bed:	85 db                	test   %ebx,%ebx
 8049bef:	74 24                	je     8049c15 <init_timeout+0x32>
 8049bf1:	83 ec 08             	sub    $0x8,%esp
 8049bf4:	68 c2 92 04 08       	push   $0x80492c2
 8049bf9:	6a 0e                	push   $0xe
 8049bfb:	e8 60 eb ff ff       	call   8048760 <signal@plt>
 8049c00:	85 db                	test   %ebx,%ebx
 8049c02:	b8 00 00 00 00       	mov    $0x0,%eax
 8049c07:	0f 48 d8             	cmovs  %eax,%ebx
 8049c0a:	89 1c 24             	mov    %ebx,(%esp)
 8049c0d:	e8 6e eb ff ff       	call   8048780 <alarm@plt>
 8049c12:	83 c4 10             	add    $0x10,%esp
 8049c15:	8b 5d fc             	mov    -0x4(%ebp),%ebx
 8049c18:	c9                   	leave  
 8049c19:	c3                   	ret    

08049c1a <init_driver>:
 8049c1a:	55                   	push   %ebp
 8049c1b:	89 e5                	mov    %esp,%ebp
 8049c1d:	57                   	push   %edi
 8049c1e:	56                   	push   %esi
 8049c1f:	53                   	push   %ebx
 8049c20:	83 ec 34             	sub    $0x34,%esp
 8049c23:	8b 75 08             	mov    0x8(%ebp),%esi
 8049c26:	65 a1 14 00 00 00    	mov    %gs:0x14,%eax
 8049c2c:	89 45 e4             	mov    %eax,-0x1c(%ebp)
 8049c2f:	31 c0                	xor    %eax,%eax
 8049c31:	6a 01                	push   $0x1
 8049c33:	6a 0d                	push   $0xd
 8049c35:	e8 26 eb ff ff       	call   8048760 <signal@plt>
 8049c3a:	83 c4 08             	add    $0x8,%esp
 8049c3d:	6a 01                	push   $0x1
 8049c3f:	6a 1d                	push   $0x1d
 8049c41:	e8 1a eb ff ff       	call   8048760 <signal@plt>
 8049c46:	83 c4 08             	add    $0x8,%esp
 8049c49:	6a 01                	push   $0x1
 8049c4b:	6a 1d                	push   $0x1d
 8049c4d:	e8 0e eb ff ff       	call   8048760 <signal@plt>
 8049c52:	83 c4 0c             	add    $0xc,%esp
 8049c55:	6a 00                	push   $0x0
 8049c57:	6a 01                	push   $0x1
 8049c59:	6a 02                	push   $0x2
 8049c5b:	e8 f0 eb ff ff       	call   8048850 <socket@plt>
 8049c60:	83 c4 10             	add    $0x10,%esp
 8049c63:	85 c0                	test   %eax,%eax
 8049c65:	79 4e                	jns    8049cb5 <init_driver+0x9b>
 8049c67:	c7 06 45 72 72 6f    	movl   $0x6f727245,(%esi)
 8049c6d:	c7 46 04 72 3a 20 43 	movl   $0x43203a72,0x4(%esi)
 8049c74:	c7 46 08 6c 69 65 6e 	movl   $0x6e65696c,0x8(%esi)
 8049c7b:	c7 46 0c 74 20 75 6e 	movl   $0x6e752074,0xc(%esi)
 8049c82:	c7 46 10 61 62 6c 65 	movl   $0x656c6261,0x10(%esi)
 8049c89:	c7 46 14 20 74 6f 20 	movl   $0x206f7420,0x14(%esi)
 8049c90:	c7 46 18 63 72 65 61 	movl   $0x61657263,0x18(%esi)
 8049c97:	c7 46 1c 74 65 20 73 	movl   $0x73206574,0x1c(%esi)
 8049c9e:	c7 46 20 6f 63 6b 65 	movl   $0x656b636f,0x20(%esi)
 8049ca5:	66 c7 46 24 74 00    	movw   $0x74,0x24(%esi)
 8049cab:	b8 ff ff ff ff       	mov    $0xffffffff,%eax
 8049cb0:	e9 17 01 00 00       	jmp    8049dcc <init_driver+0x1b2>
 8049cb5:	89 c3                	mov    %eax,%ebx
 8049cb7:	83 ec 0c             	sub    $0xc,%esp
 8049cba:	68 9c a3 04 08       	push   $0x804a39c
 8049cbf:	e8 ac eb ff ff       	call   8048870 <gethostbyname@plt>
 8049cc4:	83 c4 10             	add    $0x10,%esp
 8049cc7:	85 c0                	test   %eax,%eax
 8049cc9:	75 6c                	jne    8049d37 <init_driver+0x11d>
 8049ccb:	c7 06 45 72 72 6f    	movl   $0x6f727245,(%esi)
 8049cd1:	c7 46 04 72 3a 20 44 	movl   $0x44203a72,0x4(%esi)
 8049cd8:	c7 46 08 4e 53 20 69 	movl   $0x6920534e,0x8(%esi)
 8049cdf:	c7 46 0c 73 20 75 6e 	movl   $0x6e752073,0xc(%esi)
 8049ce6:	c7 46 10 61 62 6c 65 	movl   $0x656c6261,0x10(%esi)
 8049ced:	c7 46 14 20 74 6f 20 	movl   $0x206f7420,0x14(%esi)
 8049cf4:	c7 46 18 72 65 73 6f 	movl   $0x6f736572,0x18(%esi)
 8049cfb:	c7 46 1c 6c 76 65 20 	movl   $0x2065766c,0x1c(%esi)
 8049d02:	c7 46 20 73 65 72 76 	movl   $0x76726573,0x20(%esi)
 8049d09:	c7 46 24 65 72 20 61 	movl   $0x61207265,0x24(%esi)
 8049d10:	c7 46 28 64 64 72 65 	movl   $0x65726464,0x28(%esi)
 8049d17:	66 c7 46 2c 73 73    	movw   $0x7373,0x2c(%esi)
 8049d1d:	c6 46 2e 00          	movb   $0x0,0x2e(%esi)
 8049d21:	83 ec 0c             	sub    $0xc,%esp
 8049d24:	53                   	push   %ebx
 8049d25:	e8 76 eb ff ff       	call   80488a0 <close@plt>
 8049d2a:	83 c4 10             	add    $0x10,%esp
 8049d2d:	b8 ff ff ff ff       	mov    $0xffffffff,%eax
 8049d32:	e9 95 00 00 00       	jmp    8049dcc <init_driver+0x1b2>
 8049d37:	8d 7d d4             	lea    -0x2c(%ebp),%edi
 8049d3a:	c7 45 d4 00 00 00 00 	movl   $0x0,-0x2c(%ebp)
 8049d41:	c7 45 d8 00 00 00 00 	movl   $0x0,-0x28(%ebp)
 8049d48:	c7 45 dc 00 00 00 00 	movl   $0x0,-0x24(%ebp)
 8049d4f:	c7 45 e0 00 00 00 00 	movl   $0x0,-0x20(%ebp)
 8049d56:	66 c7 45 d4 02 00    	movw   $0x2,-0x2c(%ebp)
 8049d5c:	6a 0c                	push   $0xc
 8049d5e:	ff 70 0c             	pushl  0xc(%eax)
 8049d61:	8b 40 10             	mov    0x10(%eax),%eax
 8049d64:	ff 30                	pushl  (%eax)
 8049d66:	8d 45 d8             	lea    -0x28(%ebp),%eax
 8049d69:	50                   	push   %eax
 8049d6a:	e8 61 ea ff ff       	call   80487d0 <__memmove_chk@plt>
 8049d6f:	66 c7 45 d6 3b 6e    	movw   $0x6e3b,-0x2a(%ebp)
 8049d75:	83 c4 0c             	add    $0xc,%esp
 8049d78:	6a 10                	push   $0x10
 8049d7a:	57                   	push   %edi
 8049d7b:	53                   	push   %ebx
 8049d7c:	e8 0f eb ff ff       	call   8048890 <connect@plt>
 8049d81:	83 c4 10             	add    $0x10,%esp
 8049d84:	85 c0                	test   %eax,%eax
 8049d86:	79 2a                	jns    8049db2 <init_driver+0x198>
 8049d88:	83 ec 0c             	sub    $0xc,%esp
 8049d8b:	68 9c a3 04 08       	push   $0x804a39c
 8049d90:	68 5c a3 04 08       	push   $0x804a35c
 8049d95:	6a ff                	push   $0xffffffff
 8049d97:	6a 01                	push   $0x1
 8049d99:	56                   	push   %esi
 8049d9a:	e8 21 eb ff ff       	call   80488c0 <__sprintf_chk@plt>
 8049d9f:	83 c4 14             	add    $0x14,%esp
 8049da2:	53                   	push   %ebx
 8049da3:	e8 f8 ea ff ff       	call   80488a0 <close@plt>
 8049da8:	83 c4 10             	add    $0x10,%esp
 8049dab:	b8 ff ff ff ff       	mov    $0xffffffff,%eax
 8049db0:	eb 1a                	jmp    8049dcc <init_driver+0x1b2>
 8049db2:	83 ec 0c             	sub    $0xc,%esp
 8049db5:	53                   	push   %ebx
 8049db6:	e8 e5 ea ff ff       	call   80488a0 <close@plt>
 8049dbb:	66 c7 06 4f 4b       	movw   $0x4b4f,(%esi)
 8049dc0:	c6 46 02 00          	movb   $0x0,0x2(%esi)
 8049dc4:	83 c4 10             	add    $0x10,%esp
 8049dc7:	b8 00 00 00 00       	mov    $0x0,%eax
 8049dcc:	8b 55 e4             	mov    -0x1c(%ebp),%edx
 8049dcf:	65 33 15 14 00 00 00 	xor    %gs:0x14,%edx
 8049dd6:	74 05                	je     8049ddd <init_driver+0x1c3>
 8049dd8:	e8 b3 e9 ff ff       	call   8048790 <__stack_chk_fail@plt>
 8049ddd:	8d 65 f4             	lea    -0xc(%ebp),%esp
 8049de0:	5b                   	pop    %ebx
 8049de1:	5e                   	pop    %esi
 8049de2:	5f                   	pop    %edi
 8049de3:	5d                   	pop    %ebp
 8049de4:	c3                   	ret    

08049de5 <driver_post>:
 8049de5:	55                   	push   %ebp
 8049de6:	89 e5                	mov    %esp,%ebp
 8049de8:	53                   	push   %ebx
 8049de9:	83 ec 04             	sub    $0x4,%esp
 8049dec:	8b 45 08             	mov    0x8(%ebp),%eax
 8049def:	8b 5d 14             	mov    0x14(%ebp),%ebx
 8049df2:	83 7d 10 00          	cmpl   $0x0,0x10(%ebp)
 8049df6:	74 25                	je     8049e1d <driver_post+0x38>
 8049df8:	83 ec 04             	sub    $0x4,%esp
 8049dfb:	ff 75 0c             	pushl  0xc(%ebp)
 8049dfe:	68 aa a3 04 08       	push   $0x804a3aa
 8049e03:	6a 01                	push   $0x1
 8049e05:	e8 36 ea ff ff       	call   8048840 <__printf_chk@plt>
 8049e0a:	66 c7 03 4f 4b       	movw   $0x4b4f,(%ebx)
 8049e0f:	c6 43 02 00          	movb   $0x0,0x2(%ebx)
 8049e13:	83 c4 10             	add    $0x10,%esp
 8049e16:	b8 00 00 00 00       	mov    $0x0,%eax
 8049e1b:	eb 3d                	jmp    8049e5a <driver_post+0x75>
 8049e1d:	85 c0                	test   %eax,%eax
 8049e1f:	74 2b                	je     8049e4c <driver_post+0x67>
 8049e21:	80 38 00             	cmpb   $0x0,(%eax)
 8049e24:	74 26                	je     8049e4c <driver_post+0x67>
 8049e26:	83 ec 04             	sub    $0x4,%esp
 8049e29:	53                   	push   %ebx
 8049e2a:	ff 75 0c             	pushl  0xc(%ebp)
 8049e2d:	68 c1 a3 04 08       	push   $0x804a3c1
 8049e32:	50                   	push   %eax
 8049e33:	68 d0 a3 04 08       	push   $0x804a3d0
 8049e38:	68 6e 3b 00 00       	push   $0x3b6e
 8049e3d:	68 9c a3 04 08       	push   $0x804a39c
 8049e42:	e8 7f f5 ff ff       	call   80493c6 <submitr>
 8049e47:	83 c4 20             	add    $0x20,%esp
 8049e4a:	eb 0e                	jmp    8049e5a <driver_post+0x75>
 8049e4c:	66 c7 03 4f 4b       	movw   $0x4b4f,(%ebx)
 8049e51:	c6 43 02 00          	movb   $0x0,0x2(%ebx)
 8049e55:	b8 00 00 00 00       	mov    $0x0,%eax
 8049e5a:	8b 5d fc             	mov    -0x4(%ebp),%ebx
 8049e5d:	c9                   	leave  
 8049e5e:	c3                   	ret    
 8049e5f:	90                   	nop

08049e60 <__libc_csu_init>:
 8049e60:	55                   	push   %ebp
 8049e61:	57                   	push   %edi
 8049e62:	56                   	push   %esi
 8049e63:	53                   	push   %ebx
 8049e64:	e8 a7 ea ff ff       	call   8048910 <__x86.get_pc_thunk.bx>
 8049e69:	81 c3 97 21 00 00    	add    $0x2197,%ebx
 8049e6f:	83 ec 0c             	sub    $0xc,%esp
 8049e72:	8b 6c 24 20          	mov    0x20(%esp),%ebp
 8049e76:	8d b3 0c ff ff ff    	lea    -0xf4(%ebx),%esi
 8049e7c:	e8 73 e8 ff ff       	call   80486f4 <_init>
 8049e81:	8d 83 08 ff ff ff    	lea    -0xf8(%ebx),%eax
 8049e87:	29 c6                	sub    %eax,%esi
 8049e89:	c1 fe 02             	sar    $0x2,%esi
 8049e8c:	85 f6                	test   %esi,%esi
 8049e8e:	74 25                	je     8049eb5 <__libc_csu_init+0x55>
 8049e90:	31 ff                	xor    %edi,%edi
 8049e92:	8d b6 00 00 00 00    	lea    0x0(%esi),%esi
 8049e98:	83 ec 04             	sub    $0x4,%esp
 8049e9b:	ff 74 24 2c          	pushl  0x2c(%esp)
 8049e9f:	ff 74 24 2c          	pushl  0x2c(%esp)
 8049ea3:	55                   	push   %ebp
 8049ea4:	ff 94 bb 08 ff ff ff 	call   *-0xf8(%ebx,%edi,4)
 8049eab:	83 c7 01             	add    $0x1,%edi
 8049eae:	83 c4 10             	add    $0x10,%esp
 8049eb1:	39 f7                	cmp    %esi,%edi
 8049eb3:	75 e3                	jne    8049e98 <__libc_csu_init+0x38>
 8049eb5:	83 c4 0c             	add    $0xc,%esp
 8049eb8:	5b                   	pop    %ebx
 8049eb9:	5e                   	pop    %esi
 8049eba:	5f                   	pop    %edi
 8049ebb:	5d                   	pop    %ebp
 8049ebc:	c3                   	ret    
 8049ebd:	8d 76 00             	lea    0x0(%esi),%esi

08049ec0 <__libc_csu_fini>:
 8049ec0:	f3 c3                	repz ret 

Disassembly of section .fini:

08049ec4 <_fini>:
 8049ec4:	53                   	push   %ebx
 8049ec5:	83 ec 08             	sub    $0x8,%esp
 8049ec8:	e8 43 ea ff ff       	call   8048910 <__x86.get_pc_thunk.bx>
 8049ecd:	81 c3 33 21 00 00    	add    $0x2133,%ebx
 8049ed3:	83 c4 08             	add    $0x8,%esp
 8049ed6:	5b                   	pop    %ebx
 8049ed7:	c3                   	ret    
